(imultiAgents
NeuralAgent
p1
(dp2
S'index'
p3
I0
sS'training'
p4
I01
sS'initialDots'
p5
I58
sS'numDots'
p6
I1
sS'nSize'
p7
I140
sS'expected'
p8
(lp9
F-0.09550688305349464
aF0.74215452134001447
aF0.20808378229292027
aI1
aI-1
asS'visited'
p10
(lp11
(lp12
I1
aI2
aI2
aI1
aI1
aI1
aI1
aI1
aI1
aI1
aI2
aI1
aI2
aI2
aI2
aI3
aI3
aI1
aa(lp13
I0
aI0
aI1
aI0
aI2
aI1
aI0
aI0
aI0
aI0
aI2
aI0
aI0
aI0
aI4
aI3
aI2
aI0
aa(lp14
I2
aI1
aI1
aI0
aI2
aI3
aI1
aI0
aI2
aI2
aI2
aI0
aI6
aI5
aI4
aI0
aI3
aI3
aa(lp15
I3
aI3
aI0
aI0
aI0
aI4
aI0
aI0
aI2
aI0
aI0
aI0
aI4
aI0
aI0
aI0
aI0
aI2
aa(lp16
I0
aI3
aI1
aI0
aI3
aI7
aI1
aI0
aI9
aI15
aI7
aI0
aI2
aI2
aI1
aI0
aI1
aI2
aasS'net'
p17
(lp18
(lp19
(lp20
F0.00049906184037440404
aF0.0064064329285336901
aF0.0059980348326971094
aF5.9299682771790653e-05
aF0.006679850121692389
aF0.0022154849757018273
aF0.00017574161523273925
aF0.003163298308433822
aF0.0065829367940996378
aF0.006389999301012513
aF0.0043360853561989323
aF0.0032578142836825349
aF0.0057445354886314125
aF0.0069261397095494535
aF0.0041035706007831975
aF0.0016704998816245709
aF0.0026144159709683124
aF0.0046631646844293483
aF0.0023335353571410961
aF0.0018432848372508994
aF0.0031998884421628872
aF16.313031758530784
aF-6.1120415934247561
aF-0.72083914817138339
aF-1.3726057574787665
aF-0.34659696674901735
aF-9.229600949040325
aF-0.83302336575110125
aF3.2417276639335797
aF-2.1601671062394465
aF-10.545295352628896
aF4.6193262427949477
aF6.672319411874196
aF0.71903573483478589
aF0.13385410567013881
aF-8.9554178265296454
aF-1.4917218458029617
aF-10.629681387248066
aF-15.770722856726055
aF0.0057418133310587396
aF0.0039852440404472157
aF1.7901508227736342
aF1.6368205519178447
aF3.0484240099320856
aF-9.1877793693375995
aF0.76412582443528887
aF-12.270191639792456
aF-0.52548759606998618
aF-3.3736799487949987
aF-9.5489176690361415
aF0.27784212727097601
aF3.1365174488974374
aF0.0070231057758355139
aF-10.824168647865132
aF-7.1026228522121109
aF1.4622404338054389
aF-5.974668374286991
aF-14.457578232064247
aF-1.1898079407722431
aF0.00050910382961956956
aF3.4745755827798278e-05
aF17.029744195780619
aF6.0637392540465278
aF0.10740752274363305
aF-7.4303778555340951
aF-6.8775955799312074
aF7.6931423520881941
aF-1.9938259639052447
aF-0.89090255864941115
aF-4.7712265887361145
aF-3.2343771038756057
aF-12.507532985937949
aF-0.84701647277575309
aF-6.1260022951847946
aF-1.4631846515720801
aF-0.53048865776548693
aF3.52592349097123
aF0.23566834147793586
aF-14.398119636027111
aF0.0042715583355503964
aF0.0009063308987172495
aF-4.6794614424536816
aF-1.1307939303523231
aF8.9733356138826803
aF5.298049408644748
aF-10.46288279782971
aF-3.7439616951921897
aF5.7823508465247517
aF8.8914829026345004
aF-8.8076233190169884
aF6.5351670986024812
aF4.8373033524668916
aF-1.0078097951861007
aF-9.9759924051672417
aF-2.2227804876792026
aF-1.2426699413276887
aF10.29884768427489
aF-13.877391422126216
aF-3.6161227692681606
aF0.0012773488670233281
aF0.0050596409532670909
aF14.67642300704618
aF-8.6828200621917748
aF2.3938919963750744
aF-1.8628966311245045
aF1.2572669677027555
aF-3.2600034440272179
aF-5.3018582370629872
aF-2.3238338572392307
aF-10.981598137776627
aF-11.120605618735924
aF9.3936922488942614
aF3.75525736243985
aF-1.7400910040752657
aF-1.1450290948456578
aF0.11528119964285452
aF-6.0953529057721907
aF2.7603397788166473
aF-19.505719402390454
aF0.0063767892171019795
aF0.0026214438476077828
aF0.0038451205944367412
aF0.00389281916981508
aF0.0012683237596692607
aF0.0061035495533980078
aF0.001841138119936629
aF0.00017535316901793252
aF0.00024516542584088592
aF0.00011822545455989169
aF0.0059673418053698812
aF0.0011378288085994027
aF0.0045505592030035454
aF0.0059054657536957407
aF0.0069661604602788106
aF0.00096191319026765472
aF0.0033618938852220774
aF0.0066425582002868433
aF0.00103510057166466
aF0.0035069924049445709
aF0.002180219378952037
aF-10.333679650238665
aa(lp21
F0.00097075084821525155
aF0.000931734713379327
aF0.0064482458036370207
aF0.0040301321152545009
aF0.0066740814719951263
aF0.0034503521159428572
aF0.00289465450391498
aF0.0046288517690049611
aF0.00067067157654654593
aF0.0034955876768706286
aF0.0013842872409701723
aF0.0013787928930448557
aF0.004203575273954068
aF0.0025681410313169498
aF0.0019854331180691447
aF0.0039118068067129346
aF0.0070017895781399209
aF0.0065172097740218409
aF0.0013906299634252146
aF0.0049495799126257622
aF0.0005068231536041499
aF-4.8749229343917024
aF-8.407977802872292
aF0.40078701438487968
aF-4.0669458219355947
aF-0.82172932945474064
aF0.56885588939531806
aF-1.5350334881168415
aF0.15930589280546689
aF0.14942992263501545
aF0.65563572680667181
aF1.1416950345466983
aF-3.6563800147238661
aF-1.278212870809083
aF-3.2011873600611445
aF-0.97589639647451121
aF-3.3574546455678065
aF-2.0823075077224411
aF3.0405563265084261
aF0.0040235487622794254
aF0.0017184732647901792
aF-2.9487692950446567
aF-1.62557684993235
aF-0.90895453816590788
aF-2.5031808992164248
aF-1.7998422834740195
aF-2.8438450159775823
aF-2.0171598220290754
aF-0.3600110408944372
aF-2.3388053303557705
aF-3.5392457245434357
aF-2.9509225938904788
aF0.0039273511416057557
aF0.27659948835349124
aF-0.7278894943382922
aF-1.7405198284424552
aF-2.722201368158836
aF-1.5649569331752662
aF1.3120289777917336
aF0.0056412560713801629
aF0.0029882496891872399
aF-0.99458374065085708
aF-4.0521838052302677
aF0.1839471065624059
aF-3.1537402118455744
aF0.50277127124849041
aF0.56150380101544861
aF-4.6875193757035101
aF-0.87143615598591551
aF2.5498763459427383
aF-0.098537829395124177
aF-2.587172722660998
aF1.2066052870468946
aF-1.8333948278460812
aF-3.2303317084831291
aF-0.15410871181843136
aF-2.354141673027272
aF-1.564344276194251
aF0.33723981362759198
aF0.0060616303401406901
aF0.006185039990604148
aF-3.1992116354103293
aF-1.6337920167077831
aF-0.79367057624353821
aF-1.7622971324338763
aF-0.73760066064262497
aF-4.3519591258580466
aF-2.6958641394781608
aF-2.9963310599713817
aF-0.28219618157623966
aF-3.2371118831229007
aF-2.8933355579043787
aF-1.6885747176896519
aF-0.86426945550216427
aF-2.9878838178386062
aF-0.83298618532839552
aF-2.2739532329461838
aF-1.6546212173837482
aF-0.42435347763519043
aF0.0026894438257602351
aF0.0066684279819152811
aF-4.535428277851187
aF-2.8621689565026878
aF1.1825301703978353
aF-4.7271114774994585
aF0.44049689679851001
aF-3.3149810053529687
aF-2.324590960007995
aF-2.3217491623162667
aF-0.069241527839130998
aF-3.6321440265088887
aF-1.9301024238452831
aF0.4513346854018459
aF-0.90420232191049221
aF-2.895842435522384
aF1.0816443041153549
aF-2.3395859802709129
aF-4.9483063393082265
aF4.1982266680859759
aF0.0020521138424242015
aF0.00064632322573302144
aF0.0030923457316476182
aF0.0054173362349074433
aF0.0051416896109749421
aF0.0031988688526583915
aF8.2613735085369192e-05
aF0.0032344767727792213
aF0.0054563740106207716
aF0.0068572595242833417
aF0.0064604335819574126
aF0.0034875038521163595
aF0.00042905172706123675
aF0.0065935502134149325
aF0.006140489362806742
aF0.0034909038530387604
aF0.00016169871976871427
aF0.0034208284727133774
aF0.0061554479021574257
aF0.0059594936967676078
aF0.002328183248241284
aF-12.622328301286156
aa(lp22
F0.0062178423229520691
aF0.0027856518077939802
aF0.0051155157878440671
aF0.0030750588960775488
aF0.0048934367527922783
aF0.0059604474038395675
aF0.002980807389173785
aF0.00052023436424003132
aF0.005457818859107324
aF0.0013433677862982726
aF0.0068513701918251953
aF0.0029473442665110721
aF0.0027800103018829213
aF0.0032806722023157714
aF0.0065912481060397951
aF0.0040135206079373589
aF0.0028173929628613902
aF0.0048962472496554034
aF0.0069478604819462999
aF0.0056188528101936948
aF0.0043343500571839605
aF-6.8885027481419465
aF-1.5505068476881074
aF1.6796069172627555
aF-2.4190015109856486
aF-3.1744426539390731
aF-1.9751376116968737
aF-3.8590065322012532
aF-3.6804632573761884
aF-3.3938407044030012
aF-5.4238847453308168
aF-4.7615042473142646
aF0.58142674131064731
aF1.2202254670324293
aF7.9958616538801577
aF-2.219357269431578
aF-2.652046190873969
aF0.069189165433899316
aF2.9890286842121965
aF0.0053055110490221593
aF0.0013607759954377312
aF-0.98514692050363217
aF-1.6668668002699325
aF-2.5902214840458329
aF-0.32406484149934783
aF-6.1335296390287795
aF3.4968374339795001
aF1.547022208939101
aF-1.6092949343946485
aF-4.3048263462688903
aF-1.908151490029155
aF-4.718048565853012
aF0.0059718521886814651
aF0.030609387949278196
aF0.25081047354142061
aF-1.6741004591976187
aF-0.89581117714215885
aF-2.3619546482419183
aF-3.3781662645608659
aF0.0053264563365448313
aF0.0054827203253880758
aF-2.8257043729320364
aF-2.9975375779821323
aF-0.18489876805795868
aF-2.604879248322431
aF4.1813348676379016
aF3.3980655028120186
aF2.8717131763183508
aF2.4568008806924366
aF1.0565310143076712
aF3.6845368181415563
aF3.4566272248390186
aF4.1548143159969078
aF5.333017032984789
aF-1.9476212597533848
aF-1.5135429958075601
aF-2.5288342538001491
aF4.1327167363476329
aF-0.30990452687969966
aF0.0055068203576101359
aF0.0012942037131142511
aF-6.0366938699703665
aF-3.0499319991851457
aF-2.4957748236648718
aF1.0686196488108308
aF3.1043920753562713
aF-3.0738965335211899
aF-3.3655266891488509
aF-1.027868337895997
aF-3.6838022632905059
aF-3.9577629495418751
aF1.1478754378129441
aF-2.7823408572081081
aF3.1051069093781973
aF0.36085170921768173
aF-0.661894561688818
aF2.1104777024616537
aF1.5728605187175946
aF5.2762172849025566
aF0.0020031070754452356
aF0.0059295454248265338
aF-1.890493927828728
aF3.0693497194948551
aF3.3503323607688937
aF2.7993856832613049
aF1.0406521501491883
aF-1.1217246200653892
aF2.2963323157946665
aF-1.5710611571829043
aF-1.6805652847880759
aF-2.7810409901815576
aF-1.4519953001971926
aF-1.6595598107632339
aF4.4826119347296247
aF6.8316339482307002
aF6.6674922102223908
aF-2.2205806715235741
aF3.7581110244203506
aF4.7593370549974816
aF0.0018112968526590176
aF0.0041321558689739087
aF0.0037811967673295594
aF0.004019017716205539
aF0.0040598416369030258
aF0.0050119452965940153
aF0.00071278472852294721
aF0.0050179882885639654
aF0.0028311493614343358
aF0.002584887318113805
aF0.0023331664556304381
aF0.0012003923614913505
aF0.001316029329156293
aF0.0029326671560817317
aF0.0017691447514460365
aF0.0068140452661053829
aF0.0059185996532165825
aF0.0064388037392174068
aF0.0068645607859204065
aF0.0047976437721876219
aF0.001519974475770202
aF5.5877831204967006
aa(lp23
F0.0040253820809327406
aF0.0042119317765556604
aF0.002405533261497447
aF0.0011471586348202716
aF0.0051140413233548756
aF0.0015854018051812174
aF0.0069454240997987209
aF0.0047175412011903842
aF0.0039891873369796516
aF0.005095918506871135
aF0.0032132251934995763
aF0.0063253459019790579
aF0.0028074332272164794
aF0.0038896632608510528
aF0.0035761789469396588
aF0.0065553830983635106
aF0.0051301439250527039
aF0.0047584064625446291
aF0.0020785911053119509
aF0.0022975263659594505
aF0.00095293731200018182
aF-3.148404518454873
aF0.083444815060624192
aF3.9127739899123837
aF4.6278887755259541
aF-6.5027296684720177
aF-3.5902275826337986
aF11.779957552604394
aF-7.3468988855295203
aF-21.318867239056651
aF6.796341097473638
aF1.1768210042415779
aF1.6759733735171041
aF-1.688766919662861
aF-6.4727938814647041
aF-8.0403963736994548
aF4.3623844383358739
aF9.6783324501915633
aF-8.3208084850442781
aF0.0031365801240747417
aF0.0063976563435213006
aF-1.2385125459875965
aF-0.67091537173070115
aF-2.9924416706588848
aF-0.62889662602390795
aF-4.1014044612724865
aF-1.5099280082044015
aF-3.5832949501052438
aF-2.0243581318210961
aF0.5274638767601606
aF4.5444669459578169
aF1.7560671167892701
aF0.0052941980100827775
aF-3.9591290041312304
aF0.72196155389403105
aF3.0229000098767633
aF-0.23495802872512275
aF-3.5924783914895095
aF-5.9977108341688279
aF0.002629729216713156
aF0.00072904101158348031
aF12.892071184667907
aF-18.813762014173083
aF-2.335811758878064
aF20.580339479160358
aF-6.5580695681374737
aF-4.0150942605549433
aF7.4290633400048742
aF0.85503129716098503
aF-0.031007090842964938
aF-0.46906432364138773
aF-11.674977680183158
aF-7.1555157607403395
aF-3.5437920014249409
aF7.3116647647693291
aF-4.9821194821774242
aF1.7313927677686671
aF-2.6476367447585609
aF3.1205420008123337
aF0.0060237207592342169
aF0.0060076276517753296
aF2.7283587746194766
aF-0.84712485108782531
aF-2.5165407160414488
aF-4.2231692528764473
aF-0.74081018955790268
aF-1.0469310380954486
aF8.5213867736668245
aF-0.74491744000506011
aF3.4941113044379968
aF6.3284546410943596
aF11.270532324159385
aF0.86768959598983209
aF4.6010460079781454
aF-3.788599896909894
aF7.1567776439004245
aF-1.5088956624996788
aF2.2333672948490384
aF1.2591551163777948
aF0.0017569765595527452
aF0.0057440763731821942
aF17.444777418220543
aF-11.263082840639287
aF-0.44432293381831761
aF7.7287345961603178
aF12.513838199845823
aF-12.678239729749929
aF-4.3674474981029201
aF11.810284817104767
aF18.642708888759991
aF-7.0246177058810613
aF4.0124306432659305
aF-11.121299771786157
aF7.3106993395220714
aF-0.4385067376493515
aF-3.5952028368994546
aF0.74157226862785586
aF-8.5352532509892729
aF24.361644903061791
aF0.0060881777915651313
aF0.0039254175172994876
aF0.002717839633496972
aF0.0019656286873230874
aF0.001596117091450295
aF0.0046259241386140118
aF0.0062569684944823265
aF0.0029799541364047533
aF6.0953028213717967e-05
aF0.0022230954449840501
aF0.0041448704860281528
aF0.0040998848076187859
aF0.0015433265802509287
aF0.0061434863203115647
aF0.0011462945426066677
aF0.00039616832256515782
aF7.598675372283664e-05
aF0.0070642033505030353
aF0.0050766162229439367
aF0.00074849443723066871
aF0.0069759755294332105
aF11.295340166295833
aa(lp24
F0.0009983223127936979
aF0.006033283519738016
aF0.0031735507077865605
aF0.005989202040261099
aF0.0056140190708589364
aF0.0029360506757052777
aF0.0052858404539587742
aF0.0041239833456018365
aF0.0041802710819859295
aF0.00047137816351512771
aF0.0012315482118435393
aF0.00026075339103920266
aF0.0070012559568505958
aF0.0013707114199146997
aF0.0066408413565978777
aF0.0045454200094212204
aF0.00092004364381834602
aF0.0054507865581859645
aF0.0048419304921484812
aF0.0065804997656453467
aF0.0056592764464546939
aF-7.7807651914639395
aF-9.4093409087782067
aF-10.717450853430542
aF-8.1400834689353179
aF-6.2558241417028793
aF-6.5048419615744359
aF-3.5002182120750311
aF-2.4255651044915871
aF2.3354524914380477
aF-5.7182657482647077
aF-5.8723093530642689
aF-5.3857420388089219
aF-7.3195036698231801
aF-17.007622301327466
aF1.4729520724780469
aF10.65087884503661
aF13.502460231508771
aF9.7671057031475126
aF0.0066672725584472226
aF0.0059964488257883784
aF-0.90288093923258617
aF1.0697922174552035
aF-3.7808308459134485
aF-0.95713896225121753
aF-0.88405892545746678
aF-2.5506132839531341
aF0.6345685908253399
aF-2.2597319475610118
aF0.3956771027563421
aF-0.98757104374256666
aF-1.3068748151983369
aF0.004002752887668562
aF-0.9522066017013866
aF-8.1131849210838567
aF-3.2209531743561377
aF-4.3671060115183975
aF-4.529683361097562
aF8.590809229577502
aF0.0030530002817402502
aF0.0023034389706117551
aF-4.1624832085194541
aF5.4251692786960817
aF1.1551705301770585
aF0.35528049523859961
aF-3.291120272392916
aF-1.1368134893295476
aF-4.6945753372367616
aF3.4206792399461858
aF-0.54288384768690745
aF-2.989633778706116
aF1.0813548866414258
aF0.34257498724606511
aF-3.7263607828428036
aF-4.4041395683801206
aF-4.3690749597458565
aF-3.859799476211478
aF10.230645399736717
aF-2.336087788069114
aF0.0045689415283078549
aF0.00026493631207099341
aF-1.4723069603008974
aF-1.6422662206446059
aF1.2510957073116884
aF0.80248855945705599
aF-0.31731986130666595
aF-1.8201800845410232
aF-1.4283327588618222
aF0.003363531631112371
aF-1.9622070582324955
aF6.8958693041438943
aF-5.3317156389372666
aF-0.89288045906838909
aF-3.0298734602380621
aF0.27760264601092682
aF-1.516560046027233
aF0.27166719216581797
aF-2.2638629355333966
aF0.30629291191160651
aF0.0026653049031780808
aF0.0012250876882070614
aF-1.897653399253314
aF-0.98550984422989862
aF2.9226622111630811
aF16.076824951145568
aF12.036390581952581
aF-0.54882040455863335
aF-0.71452339748083071
aF1.2298872971499344
aF0.92585877209115564
aF-3.2768948717067761
aF-5.7141767704590611
aF-4.3481516596708598
aF-7.2942416595550563
aF-6.3173344745584918
aF-5.8517594545977651
aF-1.2357509159301883
aF8.868235468473733
aF1.3219030948991759
aF8.7058126086800701e-05
aF0.002306736911854893
aF0.0057759074291907483
aF0.0060581148329548005
aF0.0045112006601050738
aF0.0032791522795240567
aF0.004559173743739528
aF0.0036192812094310695
aF0.0015581446255580778
aF0.0062026484005857823
aF0.0043861456385948837
aF0.0040593860809334612
aF0.0030082365219828836
aF0.005039995874649276
aF0.0013931591562936878
aF0.0067848276304736076
aF0.0013732815439956049
aF0.0028172739566665961
aF0.00051179557914817842
aF0.004755788448162138
aF0.0030637203943077538
aF4.4129260208393157
aa(lp25
F0.0070269323410409451
aF0.0040643795106242104
aF0.0025653170996562369
aF0.0028224110826528107
aF0.0060752094137243714
aF0.0068086755066616407
aF0.0013980407062404616
aF0.00012687815088578098
aF6.8240131787443233e-05
aF0.0035963684318675651
aF0.002032797100871008
aF0.0015592032722990899
aF0.0051334771859688775
aF0.0019203207527278745
aF0.0036967953295454089
aF0.00013806623681602965
aF0.0024045875980898347
aF3.3361429971831158e-05
aF0.0048780808337458145
aF0.0031120053759054974
aF0.0037179978556216462
aF-7.8855552126999529
aF0.54849790398610687
aF0.11066781949372402
aF-7.607437799050385
aF5.0757955129240768
aF6.172690864981857
aF6.5507644350507972
aF9.9737360710226977
aF8.2132559922680173
aF16.543852364166039
aF7.3209575527243649
aF11.282316536367702
aF18.120655257758052
aF20.348230669918717
aF23.094821336779454
aF27.310171220741331
aF20.330629935035923
aF33.833873644447777
aF0.0056729343863075
aF0.0038760212332561599
aF-0.25912280946130195
aF-6.837479957095697
aF2.8933353752567532
aF-0.32336817324916589
aF0.92582254819397858
aF-1.6902654879539809
aF-1.9574822834015611
aF-0.63450700877581334
aF6.1853286375646075
aF-0.029801693865031779
aF4.387700233541751
aF0.0041259468970015981
aF-0.86874899543321416
aF2.8326247253121308
aF15.486663065976266
aF13.710760849385148
aF4.6894228589468616
aF3.7253355655556146
aF0.0015695453612768584
aF0.0071306372514029154
aF-1.3757063699214109
aF-2.1638170721538619
aF3.3872877208069117
aF3.5260392225022112
aF-9.2690410890141877
aF-0.23007166317403552
aF-1.7105011305631799
aF0.7473990524726648
aF-2.6093744407741464
aF3.8886950634481825
aF1.2579508915135911
aF-2.0411905532605941
aF-2.3349716091399366
aF3.8542356785018286
aF10.151840718628259
aF9.5521835891368543
aF4.8187345661362864
aF3.8924472297707662
aF0.0023996411706441859
aF0.0037659879117202142
aF-6.5240827632608243
aF0.22385975646274217
aF-1.3096643937179933
aF-1.5196562726748151
aF3.3790096870846531
aF-2.8729425740505588
aF-0.15433612728639343
aF-3.5904981837704386
aF-10.172934594275128
aF-0.84315033597959077
aF5.2509809369181726
aF-1.375578169095703
aF-4.9640198201858956
aF-3.5808188851129104
aF-0.35581031062196283
aF-1.5901440247410243
aF1.199644920539428
aF3.2134988426247904
aF0.0062272722285524953
aF0.0066122321345335007
aF-28.685582263936837
aF0.48993872468283417
aF3.1057625556672659
aF-4.8067783055230979
aF-13.973722780494125
aF6.7330302224750644
aF4.2845283415514386
aF-4.5103535561630155
aF-7.697603554999394
aF-3.0631340433485801
aF3.4019016162865365
aF-13.995853333546171
aF-33.761359492765976
aF-16.897153882708469
aF-4.1755381465719728
aF-5.3956776343952804
aF-8.1515222023480067
aF7.7944912997237301
aF0.0038684156088244427
aF0.0039433021718703384
aF0.0052337753562848076
aF0.0043814720678907
aF0.0022190529994659106
aF0.0055637118811705955
aF0.0016812232310156184
aF0.00292718656690465
aF0.0029344438256362943
aF0.0035060215741650439
aF0.0012408334440351966
aF0.0019993943641516973
aF0.0030886042919020728
aF0.002388452936167624
aF0.0024978074342685364
aF0.00099981761956969835
aF0.0054635235681926133
aF0.0069535997901128558
aF0.0028224978079359952
aF0.00075598763410189725
aF0.0069649177510949798
aF30.330278070417265
aa(lp26
F0.0011534896729878761
aF0.0070079620185310772
aF0.0070483054522413029
aF0.0012100954156600476
aF0.00051619453790871354
aF0.0052327200373002477
aF0.0014190323189931075
aF0.0068353825751437426
aF0.0023647399333983918
aF0.00043030086697862631
aF0.0049864529396050688
aF0.0063939351039791056
aF0.0057792222751369112
aF0.004910802714701029
aF0.00023918114590282258
aF0.0063438112988612877
aF0.0011181758719800022
aF0.00074652558041185698
aF0.0007796395004094728
aF0.0028610977687689183
aF0.0056584604081893102
aF-17.451591153417688
aF-29.708422682519817
aF11.890736725749505
aF11.062716792151051
aF4.215049417421497
aF-4.1004707665959765
aF-7.4491851561873874
aF2.3034119537111915
aF-18.220788345203047
aF8.9927055473251638
aF8.953329379034443
aF0.6158076196556006
aF-8.2593117804874883
aF0.54881235325997679
aF-6.4308751448801829
aF-3.0052492731786833
aF12.179267290890799
aF-9.8136481575433745
aF0.004849582456459744
aF0.0051713705852754277
aF-0.78626940131172463
aF-1.2733334207007518
aF12.212021942738486
aF5.1394913152752864
aF8.7346943222467317
aF2.5842820521572656
aF7.6380353532217971
aF0.14114404151897436
aF5.315289500055516
aF-0.89192607552134706
aF0.2431108409347022
aF0.0020890018628028522
aF1.981151731175494
aF7.8713395057845155
aF-0.13744660158569696
aF-0.868368457954246
aF-2.1104383402570428
aF6.7439817503452755
aF0.0049742640831401432
aF0.0043291678649407727
aF-21.463580671810757
aF-0.13270230180780654
aF13.949162166616684
aF11.63063142428039
aF-0.24977581983641309
aF0.33082828431282479
aF2.22374387089297
aF3.7302991654983635
aF4.1690320260578462
aF-5.7833863843556488
aF-10.762211415904575
aF-0.55710320691717252
aF-6.304018271959972
aF8.1970978654023998
aF-4.5359789892158053
aF-3.2513142205638936
aF3.6630570381693905
aF6.5411122281075658
aF0.0027951235834466539
aF0.0065820288749758047
aF6.7392677315243485
aF1.8005821737071159
aF-2.7360720729540282
aF2.1062303642791145
aF-2.7376062180468375
aF-9.2364888613795468
aF-1.3516297637093777
aF-5.3742408841421287
aF2.9930734265313133
aF-0.98304376422716466
aF2.2302788844361112
aF0.84264081398926705
aF-3.7059120668590806
aF-3.2683086426897838
aF-3.0755673266314711
aF1.443105717767301
aF-3.655946483989315
aF0.27944125809280096
aF0.002500101679598671
aF0.00049402895723390432
aF-6.2034320592943182
aF-0.94145773964782353
aF5.5405087291236592
aF-0.46552945855313926
aF2.3541721165855982
aF-2.3388077056394501
aF-1.9971884642083173
aF-0.32371207451708239
aF2.1978372115330509
aF0.429792956014387
aF-1.7161115906926294
aF4.4143728423026989
aF0.087336582011604685
aF-5.2816727452278993
aF-0.82114034689184845
aF-0.12443369232491826
aF-6.3712909726881346
aF4.5801868575149332
aF0.0037552449275494982
aF0.00094414935673603885
aF0.0044298298998254916
aF0.0018155311942972018
aF0.00016295892651727991
aF0.0028791452525399981
aF0.0046771157082047612
aF0.0041374085766387927
aF0.0011376674030116702
aF0.0044336711221138192
aF0.0028799766635029937
aF0.0042735805756708651
aF0.0070252403538811868
aF0.0070677671087403015
aF0.0049593827985726655
aF0.0016595622182174641
aF0.0034719247871171019
aF0.00079938025937819149
aF0.0060056025537937249
aF0.005575986548548237
aF0.0025662226836079462
aF-0.48162080825472536
aa(lp27
F0.0021773963280774539
aF0.0069797498576847795
aF0.0065350440763848935
aF0.0053215570520146515
aF0.0068132002493256315
aF0.0057863582821911508
aF0.0059708154071900906
aF0.0058544320775182233
aF0.0036096657882546727
aF0.0034774696870151626
aF0.0039820036577459614
aF0.0016855819461306654
aF0.0034277271376514304
aF0.0055574041071755386
aF0.0057907293394511613
aF0.0017715240938575127
aF0.0038607682599889775
aF0.00026734935578133539
aF0.0065783546184553865
aF0.0065336937000907208
aF0.0017941469423778658
aF-4.0341396707155024
aF-11.540473990134231
aF3.9805620860158757
aF-10.412493449375688
aF10.222004455176274
aF6.209257654292192
aF-4.578596477464945
aF4.0129024094942567
aF2.4482491524952588
aF-10.361174945724638
aF1.1101069922124831
aF-8.5814898164249307
aF-3.873075782686759
aF-6.2731664075175662
aF7.2150791449503702
aF14.189009165689166
aF-1.9433710941247637
aF6.0457423435499411
aF0.002951670482287169
aF0.0036945363832562019
aF0.025357208544727658
aF-5.9141384968685671
aF0.064455864053641898
aF-0.84669474465596606
aF-0.15580032967278901
aF1.7345592754018457
aF-3.2038624932338235
aF-1.0729078713280573
aF-4.9133250436891078
aF3.2572908506337854
aF1.1965248879355441
aF0.0024297604476113946
aF-1.2512019365380804
aF-2.7951051362043668
aF0.58503437143463033
aF5.7551925882379562
aF0.31911976933841524
aF-6.9929034706385798
aF0.00024631008816448718
aF0.0035332396790627488
aF-5.0277923725463349
aF-2.4265618552485178
aF1.8237705923283887
aF-6.2972420971653094
aF-3.0747797984880556
aF23.951515434691295
aF2.4897966575917621
aF-4.7654940714246203
aF-4.9155865676622703
aF7.0364026707485063
aF-1.6888116839863514
aF2.4522268509384806
aF-8.2062146078309119
aF-14.200478785517682
aF16.916887668553517
aF1.4704388931496406
aF-1.7753500188922211
aF-1.8728293729349281
aF0.0021972147608766155
aF0.0053952050508550356
aF-0.13396132732628441
aF2.1652309311371112
aF-1.3314541114884499
aF-3.4114733325567643
aF0.97831887843601439
aF1.2512009201905183
aF-2.4025760116172159
aF-0.032277863932515791
aF-1.5182400675874881
aF-3.1209974049126346
aF-7.9349572396934276
aF-2.9709584271438785
aF2.4503515202227422
aF-3.2530236325887496
aF2.0104401768526876
aF-1.7280838607184994
aF0.47722640184152693
aF2.3718327317319394
aF0.0058961206891667518
aF0.001793295541084686
aF-14.153124790445204
aF5.6912988112520448
aF3.6063736312395611
aF5.6751411164742391
aF2.7005935930362077
aF-7.0820964196781775
aF5.6936919226084273
aF-3.188673471388948
aF11.889453960084586
aF-0.91566591891718996
aF-8.6152601132293292
aF17.609711943788675
aF1.5884161357256326
aF-0.72721303110803881
aF-4.1463390231095119
aF-5.2717332697787347
aF2.9679090008322802
aF0.33684685487956811
aF0.002735853514843459
aF0.0034491908498429989
aF0.0015845819933094736
aF0.005595015326533506
aF0.00028342695845253016
aF0.001596089197737825
aF7.1690459340117185e-05
aF0.0035363853560813237
aF0.0030682501639053331
aF0.0019221015353789212
aF0.0067530263716902451
aF0.0018723434566258468
aF0.0064705325834399276
aF0.0044383507997757489
aF0.0047854195206740915
aF0.0028230774402557891
aF0.0021913027070401422
aF0.0033710194946540324
aF0.0013549685401595068
aF0.004468010570595606
aF0.0065738886917736999
aF9.9168885842799916
aa(lp28
F0.00104673187833995
aF0.0020927985178795447
aF0.0034470181782295019
aF0.0049225754266200008
aF0.0017571527381339761
aF0.00099615663669094649
aF0.0046172757351384602
aF0.00048660588783273298
aF0.0018239250517524
aF0.0068403424538472993
aF0.00055830946742621882
aF0.0016466146151735384
aF0.0063890937442385894
aF0.0070815400944658023
aF0.0065984911675037042
aF0.00067435982825524989
aF0.0061993574197516067
aF0.0032001867322650431
aF0.0052243781010220666
aF0.0058225016604971864
aF0.0037523405767306188
aF-1.8412119188123375
aF3.0568191685664581
aF2.9815230121990006
aF6.3672592069510543
aF2.0178546461566276
aF2.4519528233894112
aF3.1155997386264946
aF-1.0196139443052945
aF5.57581842488218
aF1.3527487251692059
aF2.6686084121718103
aF-1.1927782378268761
aF-2.1109266406005562
aF0.71962308089068949
aF-5.4399585463820674
aF-9.5391968453604754
aF-12.518567427102706
aF4.7023546472461151
aF0.0026972463755560918
aF0.0066338823719847865
aF-1.181037117209029
aF8.0148772795075054
aF-7.8382159143066126
aF0.9959612991326251
aF-6.4518372857386375
aF-3.0824199768244114
aF-0.92090510575493201
aF1.5178258603598012
aF-7.5435421152984636
aF-0.96558844005768618
aF-6.2245918878433733
aF0.0051646830065494925
aF3.399367553584328
aF-3.1277922123277722
aF-4.3303244713763105
aF-2.2908500851551699
aF0.74620074050235408
aF9.3793373175948407
aF0.0014496411270647658
aF0.0063797830600435179
aF5.8370478219695432
aF8.1762913729396232
aF12.100747260518567
aF-18.711086192526839
aF-6.1450711080444584
aF-1.5099843903091654
aF-4.5647490374083874
aF-7.7043044204303675
aF-10.499907975086316
aF-8.2783736842723226
aF-0.070568427145516033
aF-4.3207125781380071
aF-6.2725209371439963
aF-3.9238640069864976
aF-6.6599484722680078
aF30.116015239121811
aF-2.7809351056500975
aF10.968072227092987
aF0.0034413561232768466
aF0.0054769470921665281
aF-5.2027525158186725
aF-0.7054119267741964
aF7.7503634088735494
aF-1.5640332266481423
aF-0.1857101161467995
aF2.5040222454002805
aF-1.5051624125767782
aF-0.31940928610447245
aF-1.7092737094112027
aF-0.82342166962783514
aF-1.895215562728408
aF1.8472901712308458
aF-4.7709322472778197
aF-0.47436487052793913
aF-1.3467755582317491
aF0.037561601661660275
aF-2.0596903718559507
aF-0.31267546736878854
aF0.0035108532491432112
aF0.0016498159664710861
aF-1.989672267813736
aF-9.5695223611365865
aF-2.92056414754764
aF-1.3774960400589187
aF-3.0771521750991573
aF3.7641584955415426
aF0.49980921875972079
aF-2.1684275197874574
aF-2.7711635437959696
aF-2.01821136253136
aF-1.8269867319502515
aF-1.3252371959987481
aF-6.0871191046682362
aF-3.7315335515945485
aF-0.89552240355486279
aF-2.6623944790777996
aF-13.762189965897285
aF-1.9408757149761504
aF0.0019395084070185792
aF0.003973227124632342
aF0.0068222719959719789
aF0.0060288106565481664
aF0.0060045711290094301
aF0.0069890552526919933
aF0.0047073240131497067
aF0.006076753534422023
aF0.0046707059528529405
aF0.0033056081651143153
aF0.0028599637365182219
aF0.0004746581208259445
aF0.00029262860441492796
aF0.0043247859485253714
aF0.0067622765245642881
aF0.0017472775840677412
aF0.0033668845944690201
aF0.0026779755154430784
aF0.0061504347271860299
aF0.0061939601252820478
aF0.0053003914246728002
aF2.4024929061343747
aa(lp29
F0.0033053108314206048
aF0.0035608166988069416
aF0.0066374163029733714
aF0.004160121287375685
aF7.8190513051069289e-05
aF0.0057712906653264564
aF0.0027866003821208516
aF0.0066817003704973
aF0.0065918700438867706
aF0.004674191945656052
aF0.0035332795675776193
aF0.0053320776723613881
aF0.0048233754419544361
aF0.0068885425669048903
aF0.00074183372526111355
aF0.0033821713220080381
aF0.0069470642749553018
aF0.002859018792402693
aF0.0037567573402687961
aF0.001545463234896856
aF0.0054777096011669035
aF-11.895714965008285
aF20.399160652717875
aF-19.442423388075952
aF13.576443241683288
aF9.306477551977455
aF20.745790470572171
aF9.7804101601895397
aF12.75620571468696
aF24.685658105151312
aF-9.0270143837862982
aF15.13339328587274
aF3.5582800350759527
aF10.126638470135166
aF30.793127793830116
aF4.8065463349279858
aF12.563158527098892
aF1.5429791756039566
aF-2.8167824169578699
aF0.0070723088409136107
aF0.0059091633222232596
aF-1.3693685044625588
aF-5.6131581192642184
aF-4.2098367950988811
aF-1.3524042198563682
aF-2.5022395585566515
aF-0.48101643891070106
aF-1.8843193401440694
aF-3.5784160891941017
aF9.7712038480900603
aF-2.2364688119306289
aF0.81893873825872354
aF0.00077480069363055867
aF-1.9913432255730077
aF4.8810534575699913
aF1.8210678542609364
aF3.0478855427646017
aF-0.025571644762227033
aF-0.21032098867207763
aF0.00014608126911995438
aF0.00456375775869326
aF-7.3254642359488802
aF-10.037064593567044
aF-2.947808015824791
aF-0.93992254282765464
aF-7.5290929871633487
aF0.64371919193771321
aF-19.994390403480583
aF10.783980202184186
aF11.385164859280835
aF-4.4243410432184769
aF-10.44742290924874
aF-10.453735916144399
aF8.4922192552816433
aF12.085623370047273
aF-0.72640929064335658
aF1.5618624061935862
aF6.9333838894245448
aF-3.9448207745490627
aF0.00079039463434605489
aF0.00055273880111394839
aF-0.63363646653758288
aF-5.5530307857461452
aF2.4374996086618337
aF-1.6605147297692993
aF-0.24142471798616419
aF-7.0651565735391131
aF-1.8123705277712219
aF-0.34491632865354477
aF-3.6098355636581925
aF-2.524836559785931
aF10.251400920994111
aF-1.9615258872736232
aF-3.0279709321650419
aF-2.1931309274811017
aF-1.8813614630520181
aF-1.7509080725337947
aF-2.3629963734779538
aF9.5848464512179667
aF0.0053052468924281873
aF0.00088603010731758299
aF-26.316322590142423
aF6.0717509842923905
aF8.1906725116354426
aF-12.002065921697284
aF12.838164412485854
aF1.2192007719675777
aF-22.212809037996294
aF7.0672727811626181
aF13.233727914501092
aF28.219183165730577
aF33.571842924725523
aF19.610039666682042
aF24.446498793794454
aF22.32903828014474
aF24.990437803006991
aF24.139047711229537
aF23.425569109542785
aF8.6559980527770524
aF0.0054455345615903377
aF0.0038967844472475636
aF0.0066799727027359026
aF0.0025986375901878283
aF0.0021506942059189142
aF0.0039119589122835466
aF0.00093186706095442062
aF0.0056353754045491309
aF0.0066786239668905033
aF0.001241607607258871
aF0.0064257231723132682
aF0.002135006156597348
aF0.0012045312806581031
aF0.0025505823597991662
aF0.0050588609449466583
aF0.0030477770536015423
aF0.0053366227416757244
aF0.0045102518817210554
aF0.0057968540664129929
aF0.0064386750176250495
aF0.0014765668629667336
aF73.955685766798752
aa(lp30
F0.0065839596044661493
aF0.0019280166576885567
aF0.0070954764499933463
aF0.0067082057514563651
aF0.0011988145762508015
aF0.0043435876314923197
aF0.0044851708176307696
aF0.00070677461082994031
aF0.0015155071137652545
aF0.0056359714558149396
aF0.0019892619359177504
aF0.0034593961355072638
aF0.0024257631919917936
aF0.0041437207695366324
aF0.0020892954289129248
aF0.0034414736530741777
aF0.001950954770061114
aF0.0012578886095057234
aF0.0049546328179980864
aF0.0063102711605768341
aF0.0040083257764695675
aF-5.5007671111032224
aF-9.3155454134722397
aF4.0109940558684034
aF0.20494692490868577
aF2.3834454100372442
aF4.1137842394587336
aF-3.9968139834924088
aF-1.4821791398461994
aF-5.6510312374565279
aF3.9906946876391824
aF4.3679193936111878
aF1.5800510436147708
aF-18.313710265747051
aF9.2126547861737684
aF1.7546373085378884
aF-3.7663576272016606
aF1.3338715097790972
aF4.445864993536083
aF0.0065897798478323014
aF0.0055066850521746126
aF-0.69255334465471263
aF-4.9770688390425635
aF-3.0573980154616565
aF-0.28329620370774228
aF1.9525970941207487
aF4.6362368262850895
aF0.61382651814703704
aF-3.244982745376559
aF-5.5801565584640036
aF-4.2877302226780492
aF0.47699774167457942
aF0.0011783334486072693
aF-0.19956363800552621
aF-14.178796489444434
aF-2.4767294924129661
aF1.2314532175739503
aF-4.9963385583373672
aF5.1008270687054997
aF0.003997262091734355
aF0.0026568173656920349
aF-8.474281597045346
aF1.5181718489168845
aF5.4132891955488862
aF7.7286243761884004
aF8.033173845021679
aF1.4489549734517126
aF-3.3690391060307054
aF-4.5150236818783336
aF-3.5756902864748263
aF-0.011912892947871912
aF0.92514471571320456
aF-2.9614785984992822
aF-18.472778397728156
aF6.8331747102517122
aF8.372637074513019
aF5.7516369760217456
aF-3.0230567705797147
aF-2.385718277400009
aF0.00028465692264482701
aF0.0050007595279573805
aF-6.3286356468262204
aF-3.3349151851419316
aF-9.2675986649636055
aF-0.69217087048574599
aF9.8650521619162088
aF8.5470720721173112
aF7.7286328044466623
aF1.6757631879684691
aF-5.453482176621768
aF-1.5640791179797207
aF-8.7410899860765756
aF-3.0669301583860231
aF-2.7116450609556795
aF3.3394169194271393
aF6.0404626370368888
aF-4.7320243204667021
aF1.649563390429839
aF-0.20851975879111401
aF0.0024665465397918488
aF0.0039918040087468954
aF-4.5021380573910141
aF-5.2109163875545708
aF5.0200509233849342
aF-8.191105737101223
aF10.48269353404427
aF19.263349179501176
aF16.699484771063787
aF9.9608595067625973
aF9.0730905712444052
aF4.6635319185412962
aF6.9948848246984117
aF-3.8306654364232813
aF1.85299737541169
aF3.8015253036445285
aF1.0675161108222782
aF-6.0667201541641749
aF-0.35595934579307315
aF5.7260653412937952
aF0.003716519288733254
aF0.0033627567830463658
aF0.0016065044293653583
aF0.0027897249635788881
aF0.00089842468969926199
aF0.00028594761341945162
aF0.0028234475359251022
aF0.0058337414604226201
aF0.0030283065595297478
aF0.0024934810745063066
aF0.0015867331809271872
aF0.0051327588696144372
aF0.0045183781493095309
aF0.003698301661755716
aF0.0015269422045006286
aF0.0033115629583673144
aF0.0023497140324741802
aF0.0045161066896801383
aF0.0047274495991806199
aF0.0062030189579856971
aF0.007132382152190633
aF12.404415776565996
aa(lp31
F0.0014880892960594193
aF0.0047440670028319589
aF0.0055737560781370394
aF0.0057569952931048321
aF0.0017332543852856866
aF0.0047221441796154407
aF0.00098286196068264283
aF0.001219406395668631
aF0.0062288270095385481
aF0.0064742132005013719
aF0.00080272050192272369
aF0.0068614301799309347
aF0.0070835105835334545
aF0.0070189635424454649
aF0.0021223349449891855
aF0.0057169122627834012
aF0.0057106171049186262
aF0.0067980151814725455
aF0.0050334986005530448
aF0.0060929062551252338
aF0.0018984283424627458
aF-0.94935908774406452
aF-6.7045601780681814
aF-11.279770661860407
aF2.3130952427764377
aF6.5646606728342727
aF-12.799982261256869
aF6.0525794042043737
aF10.344730149439918
aF35.688346202891225
aF-18.528357328656167
aF-3.4813774302582718
aF-2.4892519806281066
aF-4.9889834031341058
aF1.4766284632545084
aF2.9794059869517109
aF-3.8447299876218901
aF7.5609605659265071
aF1.8485364461667162
aF0.0037580478970209558
aF0.00058022222861771929
aF7.2860580608057601
aF-2.9471312043084197
aF1.2499250824731623
aF3.7518846770026153
aF3.9111052823812584
aF-5.39533456287751
aF-1.4666779864339421
aF1.1050248940570906
aF13.771457547935658
aF-1.3312361123115093
aF-0.3078494134651566
aF0.0027554197047872367
aF1.0067654542505904
aF-6.2529964189093876
aF-7.4289186201630137
aF-1.8953165749884948
aF0.70261953627894513
aF-0.42973487695562151
aF0.0015600687373755948
aF0.00056155474695026024
aF-2.6503425917397672
aF-1.0387834166062888
aF-5.0048271482498574
aF3.8905693676130952
aF3.4338918437190853
aF-10.561912486239896
aF7.2065737712030957
aF-0.13585928864445665
aF0.65516692953760303
aF-1.7613696416050311
aF1.1925020572329019
aF4.7269672068975579
aF-6.9967120218125558
aF-4.4743698790136968
aF4.6509836258702597
aF-0.25582395562606552
aF0.97026115051826256
aF-7.3867330088851793
aF0.0027845640563980635
aF0.0010583065244056215
aF0.90516801835259364
aF0.86243604539814789
aF2.1879084478322439
aF1.0710921629131549
aF4.4933313379549409
aF0.62906189009343649
aF5.4900324257939292
aF-0.40724073021524909
aF9.5596740532527704
aF-2.4628037980416142
aF-8.8819051067116526
aF-6.9119684886612811
aF5.707371149464425
aF0.57621508478553263
aF14.420068702617479
aF3.3653806624841267
aF-0.50061975582594354
aF-3.3647864391863513
aF0.0032822494856437471
aF0.0061939840192835197
aF-5.2432553822950254
aF-1.9862113480970851
aF-2.4991306901801118
aF9.2539334552772505
aF-3.3032096882764073
aF0.036079943726193435
aF0.92372065738196196
aF2.3259693017337866
aF10.944916342685827
aF-4.2417109533313448
aF6.8824226855825961
aF1.927969625794117
aF-10.302219347141662
aF15.446609532536606
aF-9.5771898862451472
aF2.8011891292917892
aF6.5972550595331176
aF-0.94657401887500014
aF0.0019472675373612635
aF0.0056010769653726785
aF0.0059011023204451818
aF0.0066151421686455811
aF0.0065154920091617012
aF0.0038459274699956208
aF0.001892144122411555
aF0.00033098772024147365
aF0.006289384438154271
aF0.0068837544762114979
aF0.0025276794982515799
aF0.0011794406036840645
aF0.0018579202660891382
aF0.00098500860248256698
aF0.0063984110198858756
aF0.00076570680582922573
aF0.0051056432609129718
aF0.0017379524228554805
aF0.005116103032663499
aF0.0057923581921211567
aF0.0041630124969364675
aF12.733553433863451
aa(lp32
F0.00055873415673551787
aF0.0048625035541286915
aF0.0010140276467953924
aF0.0039696259051883141
aF0.0069741277171248197
aF0.0061137070150368887
aF0.00036217990568099587
aF0.0048315159104893634
aF0.0053147329066579648
aF0.0003410768998832081
aF0.0058519114327926875
aF0.0049445277912404471
aF0.0003424901634286643
aF0.00036396445909612455
aF0.0026783785026432004
aF0.0021650204159958091
aF0.004394739231668378
aF0.00021860285631373846
aF0.00026869085494031774
aF0.0051926561116492588
aF0.0052872967103358721
aF-5.6261762095328454
aF4.8251703458298199
aF2.5931897127910601
aF-4.1500611607044577
aF-6.9016397797297335
aF-4.2912042473761591
aF7.4581659171702928
aF-7.1551945336980447
aF-5.6965336626953365
aF-7.4851483325569346
aF10.608893983824744
aF-12.875501745899985
aF-9.661914727885474
aF-15.484861629126438
aF10.00691287960343
aF-9.7170691921351846
aF-5.3359711104047323
aF9.988389869652071
aF0.0010391541909013646
aF0.0025089433589635455
aF-1.8568651155192128
aF-5.2644549408678811
aF1.0743339963038094
aF0.043088957644463341
aF3.441477523919914
aF-4.4772176229007057
aF-2.403991102034472
aF-1.5636074338336965
aF0.44693092617282176
aF-2.7654655873595075
aF14.277291777188148
aF0.0065766125028059921
aF0.151824109698385
aF0.69117092407234926
aF13.498860043061812
aF1.2202863600538791
aF-6.1258247937307884
aF7.6969303622346192
aF0.0043232443485338107
aF0.0024558961037182804
aF-4.5171817240695287
aF2.9513166114186373
aF-3.419296464865258
aF-1.3061706013128909
aF3.7151790413130223
aF-3.7364633532915645
aF-3.5842667042078471
aF-7.0965991307947274
aF3.8804377608924359
aF0.79749635180816136
aF8.1751828326390577
aF-9.294644891015686
aF19.627086854198424
aF-7.8614331290400994
aF-5.8396422696003425
aF5.4250284992558422
aF1.1723250596179717
aF-4.386214115326343
aF0.00034163424090232766
aF0.00032295620849944194
aF0.56448693408967621
aF-3.5304371629716571
aF3.7652538953894044
aF-3.7728877546487611
aF-0.14936568090033919
aF-3.8475507594233957
aF0.32022385511823925
aF1.1811385653713771
aF-5.3855583823331497
aF5.826131267223122
aF-6.7608950487934223
aF1.5766943612536224
aF7.0356413722409723
aF-3.4654921209604681
aF0.017279586239750469
aF-5.4503769860979112
aF0.83645177687044758
aF-4.9756780960581608
aF0.00013277741330011298
aF0.0044467445764435126
aF6.9635982060593058
aF-3.9627382962154498
aF-3.6975231466683045
aF-0.33633599311065948
aF-3.865819375636188
aF0.37495033129065419
aF-4.2097932713353536
aF9.1349580403891881
aF-2.6059117385298309
aF-3.477502006655651
aF4.9187762889554874
aF-4.0452806928959983
aF1.5773130482134996
aF4.9852141283691669
aF-2.5820359365842216
aF-3.9135018204102661
aF0.65869393292020462
aF3.2271863391411979
aF0.0031062264330387105
aF0.0013618658330787816
aF0.0041779877239589884
aF0.0024691820530293698
aF0.0067810275024801055
aF0.005076522750088984
aF0.0025211746810839858
aF0.00087734719587295891
aF0.0067938363733105285
aF0.00048915923552747466
aF0.003681878641735469
aF0.0021424196747441204
aF0.0019313016254166775
aF0.0014348399771069982
aF0.00085474694227476123
aF0.0016630930267068729
aF0.0021293684577459704
aF0.0055807859170261299
aF0.0046485935274315172
aF0.0018686176492802155
aF0.0021544959521969595
aF4.7562342252735492
aa(lp33
F0.0054436654633133758
aF0.0043895418778571544
aF0.00260862050084103
aF0.0063252482120439166
aF0.002836345276341854
aF0.0025217650367083074
aF0.0012013938220742284
aF0.0065665076507551668
aF0.0062302253934549369
aF0.0023448017764929941
aF0.0015838659237552963
aF0.00078275108899051953
aF0.0056693540567646084
aF0.0054049094060116031
aF0.0025814382427056487
aF0.006239636430922851
aF0.0010966734073854225
aF0.0032744621092606254
aF0.0033735612127101023
aF0.0026498470715354589
aF0.005163046546138415
aF-12.140830433888041
aF16.032100433686839
aF-17.861338802090973
aF-19.730849602848348
aF-5.0945427253947022
aF-5.5608994277395603
aF0.40704911522713688
aF-5.5063891293787863
aF0.37643459873457769
aF-0.50564411256978492
aF0.61808364878599664
aF-0.42267971638471519
aF-10.293332675721343
aF13.110233002327892
aF-8.238794120098504
aF13.586244149598958
aF5.1037884143328878
aF-20.498295994199445
aF0.00060968989418718671
aF0.0010417302562915429
aF2.3701882634088927
aF12.274683111009278
aF0.87882151449813883
aF-2.5723157599221977
aF-5.7387741562651113
aF-0.55389299311992402
aF9.2519767302752864
aF-0.80449276010269422
aF-0.310281630046572
aF-0.80603769398773695
aF-1.5943329007512488
aF0.0066928002839928714
aF-1.2881571694513076
aF1.1899247009905074
aF0.65192846525542325
aF1.5365926538886985
aF11.370354174882818
aF-2.1963726918056881
aF0.0044246923202050864
aF0.0010215490027064883
aF-10.826106941656899
aF-2.6573446187396788
aF17.15229969430716
aF-9.1738449511614863
aF-6.8237790124125643
aF-0.090289542393734878
aF-2.57104828982941
aF3.374603628565656
aF-3.4894139114778753
aF-1.5824989449913058
aF14.672021260143298
aF-9.7249154810931202
aF-8.1726990327417113
aF-5.789920513135046
aF-0.04583256552696232
aF-7.3865556452266974
aF2.0703605024841631
aF6.5360504352023794
aF0.0050655680797902026
aF0.0052420964582106135
aF7.9836668275859619
aF4.6955098459792604
aF14.292085207251434
aF0.91688137914776979
aF-0.34423231753546302
aF1.83880927392549
aF0.14097968960548504
aF1.3193009336040014
aF-3.5063017616749694
aF0.37604884385816262
aF4.421205789248968
aF-1.8660251329197652
aF-1.9347325035431961
aF11.518440619187542
aF3.1370118205142088
aF6.9654462669208144
aF-3.1940926492544737
aF-0.32915951856448777
aF0.005129449400105443
aF0.00022746964514839264
aF2.3721070981062473
aF3.6771579208810028
aF1.1156864608166595
aF-0.1952545546273188
aF-3.9719864829999603
aF12.881609271215645
aF-2.3082608033956022
aF0.11878715406854856
aF-0.087025829794744783
aF-0.72376585843110908
aF4.6961729588420651
aF2.2400370731368282
aF1.3231657503163805
aF0.54779467836077866
aF1.4097564974035004
aF-3.4062933258345236
aF4.4435135822870695
aF2.2489477529600892
aF0.00088055034599497845
aF0.0041906093726887276
aF0.00047666095458412383
aF0.0071302704827079537
aF0.00092440325134894542
aF0.0014674624679306611
aF0.0013409925485272636
aF0.0038265864143692818
aF0.00081376674619026501
aF0.0029179333179248654
aF0.00011673816515869819
aF0.0060888186809399626
aF0.0014228623154968335
aF0.0051465831371944985
aF0.0024570545012131241
aF0.0037608753811408466
aF0.0020225400599282032
aF0.0067252944151976598
aF0.0067022314132446446
aF0.00027867809982229613
aF0.0052811283639067627
aF7.0945094600227865
aa(lp34
F0.0041808305409193978
aF0.00016702499018344768
aF0.0020063721220198996
aF0.0051707737819306808
aF0.0052512020471331584
aF0.006190264016366822
aF0.0054505699890424648
aF0.0026887139857501622
aF0.0035528118687866775
aF0.0016745715261034498
aF0.0016946202813068801
aF0.0054373682364825772
aF0.0029900205689460733
aF0.0054841754234380719
aF0.0071310433043178323
aF0.0013216249776608719
aF0.0024642679254274998
aF0.0063678496118758487
aF0.0056622318717432013
aF0.00087549588339935281
aF0.005855489762121884
aF-5.492235871538921
aF-5.4012313438543949
aF-0.67514775273992045
aF2.6008138537910468
aF2.9129420905982029
aF5.4015694874579285
aF-0.67840543225930572
aF5.2195126441065405
aF-2.1018909611487961
aF-2.4134819637228455
aF-4.5709054082135809
aF-1.5670724768485602
aF5.282488329688614
aF-0.19666265684513326
aF2.7850775340201568
aF4.2742995914045476
aF-0.57065626935490166
aF0.79800575128461648
aF0.0039552402223019803
aF0.00051134599978459828
aF-3.2599936166913444
aF-4.8418903137975482
aF-1.9581054620602361
aF1.7869434236592241
aF-10.240458153412844
aF1.6162364160215044
aF5.4798250204817673
aF-1.8542604963854501
aF-1.0771634568272974
aF-0.19906367243949746
aF-9.5609819760175601
aF0.0019009539560330484
aF0.60248414201772749
aF5.0472231625214645
aF-2.2045481905536524
aF-2.4032486008378915
aF-4.6413957409251108
aF3.3933647737240378
aF0.0045010515017010026
aF0.0056613800852301195
aF-8.4830786883877796
aF-10.298347745190176
aF-1.0625500007191597
aF-5.3032694283967441
aF-4.5362771928713421
aF-10.549976266721419
aF4.8773144522909817
aF10.761234187895534
aF5.1818090920961311
aF-1.67270336558546
aF2.1537200636771705
aF11.795482615484676
aF15.733554584847747
aF7.1386314553368102
aF-7.467176120835795
aF-4.1506894572963544
aF-3.8985856902284888
aF-3.5381700523492503
aF0.0039289980177719501
aF0.00027010407367938677
aF-1.9537163053827735
aF-3.6509753177027848
aF-5.1763048840642876
aF-1.9808661584939993
aF5.0250180411176348
aF-5.9516212454728112
aF-8.5102520268228528
aF-0.0040866197467121926
aF6.7677954277905519
aF-1.3116452284898772
aF-6.4707328198110527
aF-5.1351952567696886
aF-1.6418678432895031
aF4.1279070246684171
aF-2.6401664708676287
aF5.458382029603893
aF-1.100439959277824
aF0.020057817257579314
aF0.0030905751643388792
aF0.0022609208687905812
aF-16.964400653885107
aF4.579569666418644
aF2.7485131840863657
aF14.778435678302808
aF19.285845462757791
aF21.842497139446664
aF27.498469204554571
aF29.131708425455656
aF12.300045098681572
aF-2.5261858951253848
aF-9.0788963192029613
aF-1.1944714566433026
aF5.5154402633874016
aF-1.6284832637780311
aF-9.0149894643292008
aF-0.036415025200255385
aF1.9445699176946214
aF1.1380982739945593
aF0.0024497459086196042
aF0.0035090891780145779
aF0.0012092765225869201
aF0.0032911205463736787
aF0.0020266294503662749
aF0.003191420739446808
aF0.00012329791142464606
aF0.00060582238726074604
aF0.0056186046543531118
aF0.0018528800621608759
aF0.0037619237485733356
aF0.00079900895507604151
aF0.001678897314170311
aF0.0052754415896601389
aF0.002844052424318478
aF0.0057048449909749069
aF0.0024617709163517829
aF0.0058544906515915901
aF0.0010114891345662854
aF0.0034898940135317563
aF0.0044915735265759517
aF25.305696776494194
aa(lp35
F0.00048849269390317611
aF0.00059225845055544399
aF0.0056975215979134164
aF0.003064046452410301
aF0.0063207644171779749
aF0.0053522708012932281
aF0.0047147508104653599
aF4.6887730728546147e-05
aF0.0055197934088026569
aF0.0050646650246037083
aF0.0029817280751568667
aF0.0054440411765236812
aF0.0051422726357798574
aF0.00032127114751276782
aF0.0022759717063431614
aF0.0022520831549288881
aF0.0069162607359472966
aF0.0012246691257812724
aF0.0049455778327029262
aF0.0055042158130514636
aF0.0018921662643618846
aF-12.211116716921348
aF-1.7508435678172705
aF9.2250975469379668
aF12.54891219863226
aF5.7614758043693293
aF18.829704307339149
aF2.0765190031825997
aF12.205018698556213
aF-1.0299000839710239
aF2.9830792062218046
aF6.0493728435547691
aF8.8182789242975446
aF27.083018966344142
aF0.70111903907571482
aF12.527107642574324
aF34.373222753087553
aF26.230497841210248
aF4.1241033785360512
aF0.0062759061027704288
aF0.0051049910985513447
aF-0.0016417168275361623
aF-4.9991729541980456
aF-2.934089480323212
aF-2.8951398762346785
aF-1.5040943943256062
aF-2.5864485855496757
aF0.95871142630575068
aF-3.2437358864183325
aF8.2473383598831251
aF-0.49621133339682783
aF-0.87809557181958875
aF0.0056447385687168131
aF-3.3767183212723446
aF-1.9569853770101826
aF-8.5045364493326741
aF-3.4105817792102302
aF-2.3747112452884602
aF5.0043024164481817
aF0.0045362258275567753
aF0.00068904251233881662
aF-14.689554260536939
aF1.828363116033324
aF-1.1782326179067235
aF10.300243650683695
aF-4.9916040061504248
aF-3.6020908734242951
aF-9.9396234527257192
aF13.827798441570378
aF4.5127361689600587
aF-2.0609513837952087
aF-16.78656125583046
aF16.905919650265922
aF8.9373314662851229
aF9.7047579838031641
aF-4.9873465116061571
aF0.39219207768503195
aF16.282890858000041
aF-6.4969096892283558
aF0.0062956091577208899
aF0.0061613633727731938
aF-6.2884761142469801
aF-2.8132955721410036
aF-1.3551902478313793
aF1.9542923832146728
aF0.00025132841238047985
aF-15.301103447302326
aF-0.5292022633798894
aF-0.0064015877397112274
aF-5.7317567543175096
aF-1.3167735715840359
aF-10.573864351851158
aF-3.6654286025393774
aF-6.7123470821628217
aF1.6502079000869003
aF-0.0034246122619310563
aF2.0799630170766816
aF-3.3889302972473203
aF7.3480278362734817
aF0.0025167519607418422
aF0.003936109239956887
aF-8.9914721801557782
aF-2.1913965634008212
aF-7.9685706766423738
aF0.096281215679273599
aF4.8473662882602646
aF-5.1473900930586263
aF-7.4051321144334441
aF0.8882934464996961
aF12.388779869383391
aF3.1527341301475742
aF-12.260787647768666
aF17.86446440730808
aF23.023728813686503
aF8.9173525212264
aF15.046530769741342
aF14.014018246188307
aF16.554252522431089
aF6.5550806512216218
aF0.004719461203218883
aF0.0023363136429808908
aF0.00020657900227782038
aF0.0063915484142876219
aF0.0028963756063168518
aF0.0017739689532660038
aF0.0002845740036836305
aF0.0064026583012922605
aF0.00046863064731111426
aF0.0045931924585137273
aF1.465871982857525e-05
aF0.0037657665161741475
aF0.00587394358950547
aF0.006026090717045217
aF0.004017551187648195
aF0.00011849863903059611
aF0.0048135046397384043
aF0.001366288458574482
aF0.0028106308125211113
aF0.0063782440889542189
aF0.0049016596285227556
aF56.931135828762876
aa(lp36
F0.0055500766912256931
aF0.0014265821742797866
aF0.0043726363362913715
aF0.0065310273875813767
aF0.0026392016418317278
aF0.00019452429489955308
aF0.0047510906795628699
aF0.0020891150694031429
aF0.0035399426536071119
aF0.0066626024711083998
aF0.0020832323440455008
aF0.0020164769207906955
aF0.0021588622770650884
aF0.0068239372661224422
aF0.0046154308824720384
aF0.00097844985913327987
aF0.0041733067600375302
aF0.0070379401595691195
aF0.0062822043146572946
aF0.0025420940252541941
aF0.0038618219857160067
aF-4.4582674427650852
aF-1.5995362577166521
aF-1.9771955176879936
aF7.1899451117698465
aF2.8499660086963909
aF-3.1773929881293408
aF0.26728881756468192
aF0.41403211781853239
aF-0.43975118211077618
aF1.9285950711880488
aF8.7785064126895218
aF25.42319485893286
aF1.231101379366828
aF10.03629391023089
aF-7.6073030198126208
aF6.2530813339158939
aF0.5874196831739017
aF6.4947333802977347
aF0.00057575884566112999
aF0.00032962926171624423
aF-0.211807674826028
aF3.2016988061279883
aF-0.38269232981405521
aF3.0944422467803645
aF-3.6031145747328064
aF1.4260694516281409
aF2.4508527895290171
aF-4.3404786588707989
aF3.4865730275396882
aF12.235620049521817
aF1.1916841291744391
aF0.0032205181885766694
aF2.2930336587110554
aF3.2120163126657677
aF-0.31086922603924544
aF5.5378370560070698
aF1.251089930992713
aF4.9626775699246206
aF0.0043070888771062493
aF0.0049300723739047984
aF-11.52297595357736
aF-5.9654405796928902
aF-7.5924296697964273
aF8.7248315470670939
aF1.4148231153795447
aF-2.5700909702607588
aF4.8628257858946382
aF1.3045795669709299
aF2.9186864023356334
aF6.6378972792725053
aF-0.15310939772499671
aF-1.5805007208402562
aF6.5287547184945725
aF1.7866630344051813
aF-3.3150979058708496
aF-7.5391341880138549
aF2.0014452289647742
aF6.2911902032859537
aF0.0021101385573764676
aF0.0010236866696270179
aF-13.350562120192654
aF2.4201977131805288
aF-5.4988586573561662
aF-1.7209036841979386
aF2.5328454110240797
aF-1.5761452131463538
aF-0.9524006901401838
aF-7.3412675563301191
aF0.91527434983584022
aF0.94655466408919375
aF-1.4240208729120334
aF-1.4273912541917173
aF-0.044884285798688903
aF-6.8738985678019811
aF3.995848785299974
aF1.5491438449431472
aF-0.71674884809272865
aF3.8111552405472473
aF0.0024126600879969253
aF0.0067851217256316553
aF2.478388310829335
aF-12.643135015514178
aF-11.455235614028821
aF8.1724983691879061
aF3.0796722249491895
aF-9.9380302696264717
aF-7.7426627016773359
aF-5.1984665914903756
aF-0.51781544729459184
aF-15.450641615119114
aF-9.845775111360453
aF-1.2320425378620881
aF-1.438419039665648
aF-15.690103481356545
aF-2.7953984615449738
aF2.8258423091281846
aF-23.990359445458864
aF14.67509352518676
aF0.0034123773947258938
aF0.001953845602922524
aF0.00099154694757106723
aF0.002230653225294759
aF0.0048563502656970301
aF0.0040452336157932988
aF0.0018477473021471427
aF0.0070105692425814015
aF0.00087523128284055748
aF0.0047427036168973952
aF0.00073673288534449957
aF0.0012627801066297929
aF0.0061514369701572797
aF0.0014838504800889583
aF0.0056261433420969975
aF0.0032698724186229107
aF0.0034986627755581429
aF0.0063036419578114729
aF0.0036291709738909819
aF0.0040122552389002825
aF0.00059544975989385927
aF3.9731012835210429
aa(lp37
F0.0010163030438856586
aF0.0015024222691859546
aF0.0063723072445079918
aF0.0061739822744229832
aF0.00012654451239560278
aF0.0042963086240943712
aF0.0012079428182510002
aF0.0025957628116300164
aF0.0021860012178052802
aF0.00042150277348073322
aF0.0036489259039428463
aF0.0068029221984548449
aF0.0056468606068282561
aF0.00043549432546194762
aF0.0033566480412373337
aF0.0025216623340830586
aF0.0049754685772728244
aF0.0011819340447943789
aF0.0019535703839982472
aF0.0070209472793125926
aF0.0027621002043057355
aF-1.7869406585184373
aF-1.9266851593748437
aF-4.6921865500943873
aF6.5009434167120874
aF-7.6036881114714303
aF-2.3593513822738474
aF6.5137845794691183
aF4.5126180782654428
aF16.350693990054914
aF0.58117478587657645
aF-10.86911144080028
aF6.7865114457465845
aF6.5592137479822767
aF22.767461132792466
aF-7.086644305169246
aF2.8636378005742191
aF-17.439362408807266
aF42.046880841232777
aF0.0038012086705223342
aF0.0013796592744316843
aF-0.89953067403985354
aF-0.20314880505769478
aF3.8036152359600464
aF0.75816073972095732
aF5.6292398887642987
aF6.0230209826521426
aF2.1802774520753507
aF-0.21912575583800195
aF-5.324404919789373
aF-1.6768831229725554
aF-1.111277956678324
aF0.0042478960443973774
aF0.64130051993978021
aF-5.8537799338582355
aF7.6592100697604817
aF7.2549829093401925
aF-6.2004199814495244
aF-6.2090814233115568
aF0.0023233463251249539
aF0.00073014996457660883
aF-9.8164945128505785
aF-6.0030350567609547
aF3.8770392735632448
aF3.1646001891234121
aF-16.886484308368352
aF-5.3637226330123413
aF27.368683446808816
aF-7.6808971145635194
aF-11.684623183410654
aF-0.5920325638323789
aF6.4372411554100992
aF-2.9417854056600095
aF-5.0517996086984747
aF1.8324560683392133
aF-2.2892964289746782
aF0.74061005418081349
aF1.1826304989310799
aF1.9798816908815882
aF0.0055597891080755215
aF8.2795139230089151e-05
aF-1.9200040115620041
aF-0.068768290050884459
aF-5.0009455679390822
aF0.28340962948044413
aF-1.76911786664034
aF-11.439353494035386
aF-2.0763705387557438
aF-1.8984264865301772
aF-6.6645277059801638
aF-7.2644755686386313
aF-4.5905393169328539
aF-0.075742042477556379
aF-3.89558713364623
aF0.076681282805588752
aF-1.2515824936468691
aF0.452719153462456
aF-1.218151485667438
aF-2.9227018389709296
aF0.0034583667693196436
aF0.0054138732699482378
aF-6.9904004115202172
aF-6.6905233945051776
aF12.167444816607398
aF-8.1965870473064406
aF-19.46895276273332
aF-1.9853988497335635
aF36.691251461143807
aF-7.528469810315106
aF-11.072007613250751
aF2.8589804745826246
aF17.753972283884575
aF-5.9483642269006705
aF-16.755242750610023
aF-1.9741730506660629
aF18.952450164772362
aF-5.3524650100250799
aF-13.013175650483694
aF15.739603310844966
aF0.003072277504243786
aF0.0025640861417355848
aF0.0030351050683594806
aF0.0056620421536186715
aF7.2360068821163725e-05
aF0.0053583321613488227
aF0.0030734904409623677
aF0.0065889275951399708
aF0.0061170745766014525
aF0.0029171599170784309
aF0.00064741298530990147
aF0.0070753414975591932
aF0.0035102505679817115
aF0.0031035254111919232
aF0.0062995315982797432
aF0.00084175420540892653
aF0.0053853826206720938
aF0.0039774885965194132
aF0.0019447281686192815
aF0.0068177868735689083
aF0.0048014018564384491
aF16.90722811585665
aa(lp38
F0.0039161012590661765
aF0.006551779281137233
aF0.0033037582540562738
aF0.0056832479728438252
aF0.00036787065712617678
aF0.0028651071492940051
aF0.0027448900750343024
aF0.0051508514857835589
aF0.0064516007664358246
aF0.0069548895796353255
aF0.0067399061822514227
aF0.0062011005187723118
aF0.0057301706717776662
aF0.0032447663250065374
aF0.0012948834991347777
aF0.0027142817149032718
aF0.0029358083851996264
aF0.0037336986470213589
aF0.00036460228240890302
aF0.00065225177837949309
aF0.0015753698526065096
aF-4.8728377292461307
aF-0.86881305653596164
aF0.82717509407713308
aF1.9141221470920819
aF2.1709941657217495
aF2.9181951788856324
aF-4.8322035099925262
aF1.7173161285555791
aF-3.5420100909396806
aF5.7469718857335579
aF7.2740537046527951
aF-5.643024261268649
aF-11.634059019406219
aF1.4089972116033669
aF6.7112343463749715
aF-1.2854046398026115
aF9.9398555653607694
aF0.58008630461295108
aF0.0068834829167995076
aF0.00077703887952179401
aF-3.1262747156335098
aF-8.1199950314002098
aF-3.6555265054984765
aF4.3443522635306593
aF-2.8165321493932818
aF-5.0147203195006016
aF-0.6595562079631655
aF-3.1201504805386664
aF-3.2636879200575786
aF-0.51382294115636107
aF-6.0579026177443662
aF0.0048960141818247972
aF7.0631557350074869
aF-0.60724093134232637
aF-2.1309781166480746
aF-1.1219781697209139
aF0.282392053534888
aF1.2813105458916185
aF0.0020313273972983078
aF0.0060935346447068195
aF-9.6052771309031062
aF-8.6114798001649184
aF-3.5492472054710116
aF-0.80706726942524309
aF-3.851595983683898
aF-5.7976123606105849
aF2.5458509662130298
aF1.5385351928801425
aF2.6971714405195617
aF-1.4696028899607818
aF-2.2293476256320832
aF-5.4755634149126235
aF-3.9084514680834044
aF5.674700548907774
aF-3.1392529213197471
aF-3.380379845989165
aF-0.020728471773644223
aF3.3466535262256687
aF0.0053871525605138273
aF0.0020557831823474633
aF2.0854996306048368
aF15.234522587159365
aF-8.4461382791782587
aF-1.511904809074275
aF-0.74066114115423876
aF-7.4734081943449784
aF-0.57325189113695951
aF-0.87666039774828408
aF7.6877183013453578
aF-3.9965586065105239
aF-7.3562938219572018
aF-6.1074566163931685
aF-6.1588586892007848
aF2.5318746129965004
aF0.46902470310902855
aF-2.9647495056469899
aF-2.9862733540841662
aF4.3139461339462342
aF0.005046861023108304
aF0.0055891382419437146
aF-19.466529562847782
aF-0.62093191996611063
aF2.1771732669115988
aF3.6548403334506467
aF4.0345710870802245
aF9.4899660453444117
aF-4.0827398903864554
aF-6.2283211496109381
aF8.6541606150881876
aF11.428487407956482
aF6.431598595848472
aF16.511637280881779
aF14.751017725643615
aF26.753834728245184
aF21.380356852034449
aF33.74017676610444
aF19.022307149395413
aF41.170629094105088
aF0.0024111369063446186
aF0.0055752336270039659
aF0.003963306740413574
aF0.0069014404411572158
aF0.0029695505114828505
aF0.0023599602103420484
aF0.004883209020074772
aF0.002997762116332423
aF0.0051310373644989464
aF0.0049410212615050341
aF0.0016021078975660694
aF0.0058769758175634245
aF0.0041937869792955983
aF0.0041441079629874217
aF0.0051652824428976103
aF0.001760953775569573
aF0.00020229862848154454
aF0.0010465432794074415
aF0.0050018531810832661
aF0.006777486261986483
aF0.0065837089730858712
aF33.679086642763096
aa(lp39
F0.006097287013878243
aF0.0019014609678847446
aF0.0011971710209550583
aF0.0015648298321624629
aF0.0054533395279541246
aF0.0050628010148748162
aF0.0024721322399617997
aF0.001543153276054129
aF0.0047417139147019217
aF0.0026217644932287698
aF0.0022548466277424808
aF0.0029046921089197638
aF0.0030813550563941836
aF0.0019445064882182672
aF0.0056117553205920802
aF0.00085460491855795834
aF0.003659279479040543
aF0.0066143313095892572
aF0.0026888635755521711
aF0.0016777444991878355
aF0.0053587488992674964
aF-0.069816297426086485
aF-8.7929585638124266
aF-5.4250009643629102
aF0.35998707413845182
aF-6.1621379304637625
aF-16.067190090846573
aF-5.0309027169194884
aF9.9084248700754216
aF2.380611819356433
aF12.037822717223277
aF-2.1817593189935192
aF3.0541042221720831
aF4.1772089629969784
aF-8.1567195326996949
aF-8.6109099371447382
aF-3.0264124027362374
aF-7.6130792019917894
aF-9.5795852824634249
aF0.0046071367760586908
aF0.0051452113467377004
aF-1.1626464712336306
aF-0.65781082852323891
aF-2.7099613064247552
aF0.21882717783117317
aF-6.3388478717711489
aF-1.2434482747535918
aF-0.25950966191822633
aF11.218873323025425
aF8.1528882456527807
aF2.7886892333957176
aF-1.4965398912724446
aF0.0032271460403096816
aF-0.83055163896764173
aF-8.1609347187949144
aF-2.7923442253441424
aF-0.90386887112047831
aF4.755954331835647
aF-3.7498376518547407
aF0.0058040143653518509
aF0.0019129700416059255
aF-5.3252693506583801
aF0.94163285088229431
aF4.8066545280758115
aF-2.3215595474653279
aF-8.0108988609111016
aF-5.4959474312536489
aF12.639730990752089
aF-0.96910968018044019
aF4.9260725755187051
aF-0.63578506228267428
aF-6.3987730959460292
aF5.9397920515393254
aF-4.2960553947942861
aF0.8281313720853577
aF-0.45840902525470079
aF-4.4457074590797863
aF4.6868249408510572
aF2.199920965161164
aF0.0063391958164908078
aF0.00082602932393075162
aF-3.0776364375782461
aF2.8970502670985807
aF-4.3479529668436792
aF-0.18763171059157097
aF-0.84352715999332228
aF-1.480807377353667
aF-5.7392573205643496
aF3.565051393596594
aF1.6529675127669319
aF-5.6519373967043398
aF-2.9508695095241402
aF-4.3851863481993325
aF-0.23341944874847678
aF-0.56602904466424764
aF-0.94834620342196307
aF-0.67590411603903833
aF2.3481147812287575
aF-0.55729271908388145
aF0.0049171374055304818
aF0.0064627541012552917
aF5.5195800290610917
aF6.1203631358187183
aF17.369625417994033
aF-6.0891875656563021
aF3.0040032552740512
aF-3.5862874049458573
aF5.2266632092414218
aF-2.1252633459832042
aF5.6620260444447208
aF15.580708082786167
aF7.6773477855655123
aF-9.8940311045436182
aF0.004728203316900252
aF3.7851150481634885
aF3.5834392529619881
aF-6.993763683634266
aF3.9090488200218005
aF8.2103822455416324
aF0.0060501706919505321
aF0.0062095392753900719
aF0.0050081557368295837
aF0.0040890797678726533
aF0.0056456804325586436
aF0.00023161054960411733
aF0.0062381037461016475
aF0.0032703404548809268
aF0.00081235084686271308
aF0.0055306276471933759
aF0.0043510510385639627
aF0.00096913605329456852
aF0.0070511849651344926
aF0.0067336830146061356
aF0.001138351055495456
aF0.0031559607507945977
aF0.00071644261617656894
aF0.0031475242428937304
aF0.0015218341899864952
aF0.005908113697980031
aF0.0012747393879958609
aF7.4821472898688519
aa(lp40
F0.00018813016763865676
aF0.004240107315663543
aF0.0047033107346787454
aF0.0033403059785736102
aF0.0015367787892476708
aF0.0060305950886802842
aF0.00061466582455809555
aF0.00046830633030563374
aF0.0007013973341960752
aF0.0067143681064273176
aF0.0014009113598489943
aF0.0010636663558234569
aF0.00080355693712452607
aF0.0041723026290132696
aF0.0038593192232706077
aF0.0055366995714359376
aF0.0020210311376986532
aF0.00087794580282153287
aF0.0066095802453863123
aF0.00098379998336001434
aF0.0069086558964177409
aF-10.477814608945991
aF-4.6370276822406238
aF18.57049695119742
aF-6.7020118095509673
aF-12.822875417252563
aF-5.6303548011706219
aF1.1119130060935101
aF2.1544665488796464
aF-4.6403702094239465
aF-4.553528395981183
aF-4.7321529268005769
aF3.6401558395602978
aF0.80812785991558644
aF-1.2172994200199589
aF-4.470155230111569
aF-1.7888192145926878
aF6.7183641280261792
aF-14.287144107979875
aF0.0038302839752095926
aF0.0040191633043784435
aF-2.4562326022428436
aF-7.6726806444890316
aF3.1457154670744618
aF-4.9722291097958653
aF-3.8250267365424402
aF-1.7613087063811337
aF-0.18323390141904694
aF-1.8153515566284681
aF-2.5877566408719894
aF-2.2082865176777524
aF0.87406039181812578
aF0.0017007342186295975
aF-1.8416676633505251
aF-5.067869825736965
aF-0.57683763435136626
aF-3.4746939268475883
aF1.0645260764949995
aF3.4577155591805315
aF0.0023968523306757963
aF0.0018575050882490467
aF-9.6450739519843385
aF11.008598135583593
aF16.644301367274636
aF-9.5499710119138062
aF-9.0187947050308761
aF-0.085354379319301232
aF-5.8931949715975014
aF1.9000038292926311
aF-2.2439765779018095
aF-0.18148303361579488
aF-3.7609575579557744
aF0.97839566134218936
aF-0.014472387769001192
aF-4.1176697445069896
aF-5.0758976652620325
aF0.031184858490707894
aF2.2159633860106998
aF-1.0787119518672739
aF0.0012797017052759343
aF0.0035583704817650479
aF-4.3300004554410361
aF10.6000009821036
aF-10.282230997458532
aF-0.31617577717110734
aF-1.9466407002261434
aF-5.1670174943566041
aF-2.9593512453255579
aF-0.79267314308943182
aF-4.7776265966566021
aF-4.4617647030587584
aF-1.7451404908931947
aF-2.3969121425593185
aF3.2759443439488622
aF-0.35595347784868536
aF-3.0568754300432746
aF4.3425315440544869
aF-0.7836197010684145
aF4.1124631693834734
aF0.00070952928284919966
aF0.0031537160880739609
aF11.337891384836979
aF6.9593509248811269
aF20.581628858623549
aF-3.9229770941100712
aF-2.0123034218383884
aF-0.73646841276685548
aF0.24589211003103847
aF1.0694128324626355
aF1.6378110062333016
aF-1.3189061594205416
aF3.9767180156934265
aF-1.546695417099877
aF-1.5825363036653597
aF4.6338480608036292
aF5.5062726859982059
aF-4.4550641068760317
aF7.2243279307668198
aF1.453384451285906
aF0.0037499615445212107
aF0.004208104963225226
aF0.0062958521416652154
aF0.0061192440025527942
aF0.00056440699321194741
aF0.0042030059105498761
aF0.0051675807002128701
aF0.00069638784789269879
aF0.0055481313978716093
aF0.0060360763648104653
aF0.0060429477224236017
aF0.0032169202379096675
aF0.00092170620111221011
aF0.0010737034911008278
aF0.0047389342886043359
aF0.004139058738446607
aF0.0060083035496736195
aF0.0061822797691906675
aF0.0058202379302262804
aF0.0034026079237283392
aF0.0020064902682490776
aF6.7732067262057889
aa(lp41
F0.00351870454493139
aF0.0029130093972640531
aF0.0063529282435848154
aF0.0070137950846100678
aF0.0065455284556378331
aF0.00015099758758524111
aF0.0040367600376661449
aF0.0059253499059051329
aF0.0025664055536004761
aF0.0066767852313567612
aF0.0058833345731484285
aF0.0032229431306225798
aF0.00027849141912232627
aF0.000782238202799632
aF0.0051499030828871762
aF0.0035803687255753828
aF0.0045986931092129009
aF0.0067599789940653568
aF0.0033690270567351861
aF9.6172373044271594e-05
aF0.0043138218650442955
aF-0.48161077929921581
aF2.5474633554276438
aF3.6857095078794297
aF0.1792132359204511
aF0.8452419059886489
aF4.9523685448013204
aF-0.71833721219345881
aF0.34986089858785197
aF1.2016430467958705
aF2.2082562640748682
aF1.0736896821417647
aF-3.0570057688458734
aF-3.1374531629126019
aF-0.70505250660371066
aF-0.41503740450541649
aF3.2369675100030362
aF7.0288439204806856
aF-6.9226842845117442
aF0.0046182273083313075
aF0.0019323976776866949
aF-0.94900187886048715
aF0.52426600353105057
aF2.3364030261235191
aF4.4071345493087852
aF-4.8902688896006179
aF9.1826861163245148
aF-1.958759760742069
aF-0.098187756409949464
aF-0.1616348268411307
aF5.9561988782648951
aF-1.0128864482930267
aF0.0052058204228568015
aF0.52439164263407489
aF-1.0359929452656289
aF2.828498872166159
aF-8.2983806658590922
aF3.3593436744925782
aF1.0878988547521977
aF0.0039633562437341166
aF0.0033012652943840396
aF-1.1362480161560717
aF1.3198706126303339
aF1.0358056120255781
aF8.7117802597772371
aF-9.6432764993405033
aF10.185300844605134
aF-15.820454233624327
aF-2.6696363095694422
aF0.96128158132955555
aF5.4066594324425372
aF-6.239877957242447
aF-0.77946556458251737
aF-0.79164301602705311
aF-3.1368331292298328
aF2.0159602042199323
aF-3.2798537085510482
aF2.2889924119009062
aF-7.4834668808810321
aF0.001205989713317617
aF0.003694340429314177
aF-5.0220328978548379
aF9.078324359009903
aF-0.62594422287931639
aF2.6644087855949459
aF3.8231231588366859
aF2.5623657992125541
aF1.7816351161401296
aF1.0326026431299888
aF-0.56793939062772802
aF-0.63282125523887545
aF0.43207110876304189
aF1.0606984247600253
aF-2.7009072404528829
aF3.5394874378588086
aF0.96279777017643342
aF-0.91529614058400743
aF1.8418278779184099
aF1.34123051601965
aF0.0029661137860572213
aF0.0046797900197354967
aF-15.020846925698573
aF18.413630380152927
aF-26.257723474294913
aF7.1985066226942305
aF4.5944176010084981
aF-4.9202581710488129
aF-15.261415202170653
aF-7.9485719996698796
aF-5.6750934108066406
aF3.3530966984876107
aF-2.0499101227729128
aF-6.429450060430864
aF-1.7817468569134198
aF8.6672974844736306
aF-3.4342647574023721
aF0.61641505233922345
aF2.1349041337783392
aF-8.648047842717034
aF0.0010573658121322803
aF0.0032801750921043061
aF0.00074181021948940828
aF0.00013188674848819534
aF0.00077936023713834183
aF0.00075885035060423438
aF0.0019333388483355727
aF0.0021217231093865964
aF0.0040559964172024654
aF0.0036229295999270755
aF0.0025709060296111941
aF0.0035599302423666205
aF0.0067322505422343134
aF0.0058445131624555212
aF0.002726211018581341
aF0.0049114367921949537
aF0.0027900509877938407
aF0.0001462865695997208
aF0.00062671220864593058
aF0.0070273771580854731
aF0.0050228723998292724
aF-2.1275839782502244
aa(lp42
F0.0010934295469993732
aF0.0057836442024358356
aF0.00244159346612871
aF0.0046267809872036214
aF0.002476101576451372
aF0.0060056841944742803
aF0.004797799103767918
aF0.006090740131895464
aF0.005133652544493968
aF0.0025925610891099626
aF0.002525425874396013
aF0.0029292998517017601
aF0.0039675431358601751
aF0.0042432968018115613
aF0.0067237651516382823
aF0.0068377786035342626
aF0.0058398843382738048
aF0.0051177395492469418
aF0.0070088368952788182
aF0.0052062307985925125
aF0.00045545654608177119
aF-7.8708153567548855
aF7.0723418431085525
aF-6.5099485336384086
aF-8.2165796038655508
aF2.7480660708048155
aF0.45213458693526232
aF-3.198512486639435
aF-3.6683702434589756
aF-11.049815528668887
aF7.2554868390547709
aF-11.448572468007377
aF-3.9089840394945115
aF7.4761874713329153
aF-4.2962543142260525
aF-3.4806677157095041
aF0.21453877962120221
aF-0.91666564446175347
aF-2.397234167014302
aF0.00062185285373303879
aF0.0028668036257393234
aF0.69297555606172767
aF-6.1823980936220444
aF4.010789270771193
aF-4.1083902848478369
aF-2.0498679931844626
aF0.37930267208903967
aF-1.9219658175310459
aF-0.76850964931922328
aF-6.3172477386237382
aF3.467104583616341
aF0.95948981195557148
aF0.0038306407276076813
aF7.7353598384687476
aF-0.52757114717248044
aF-5.5367120416800377
aF2.3440770822327379
aF-5.9440029041144991
aF-0.67198094896421001
aF0.0037372153000717447
aF0.0022735587694667379
aF5.9672460429563223
aF9.5374885998926544
aF-7.3021410163700322
aF-11.471059671948966
aF-2.1134418726050583
aF-4.6824826134171245
aF0.81187094224838208
aF-0.47561940131248404
aF-9.1343289040416185
aF-0.88798901166350797
aF-1.9506758231340089
aF10.881298153589126
aF4.3001502976915393
aF-2.1330665935568103
aF-5.7271248582768912
aF-3.2513904215507234
aF2.5614097980572392
aF-10.583833992140864
aF0.002594367094064774
aF0.0016144549149772313
aF7.1945142967717981
aF-1.9462884486834315
aF1.3479450265266029
aF-4.9124603111959235
aF4.0855414273592707
aF-1.6781858724049619
aF0.17048517249246548
aF3.5014408340150247
aF7.0387588040836109
aF1.5430928107444857
aF-2.5995439521341863
aF10.924843555879011
aF7.7295756453868316
aF-5.5034180095358165
aF0.85760877779501288
aF-1.1331475123246955
aF4.9653279809459745
aF-2.5841730931536269
aF0.0018023698279752871
aF0.0033457038621933651
aF7.1181193637127507
aF1.4374662319385563
aF-1.23145243458661
aF6.2762487247147192
aF-0.68086138520367556
aF0.39284669079791601
aF0.73729490216930782
aF6.8961004799165071
aF-0.46585872452155075
aF1.7247938319746314
aF8.1905408333267218
aF-4.9274271480166494
aF-2.1390975699739774
aF10.097182982898701
aF-2.1071654693634287
aF4.8649644971521759
aF2.7626402165076978
aF1.6604176517550051
aF0.0067473077836754519
aF0.0017451226822933199
aF0.0042885052436652232
aF0.00022583217543954427
aF0.0047788778520182007
aF0.0044209148060205782
aF0.0053813508471122441
aF0.0044266059971363155
aF0.0034553532721985102
aF0.0055062500739996674
aF0.0028776084914765901
aF0.0013085884555931373
aF0.0037284773025882058
aF0.0013960021756397347
aF0.0066265703680038097
aF0.005706958892138795
aF0.0013686327259505883
aF0.004206347240354894
aF0.00098209872644900841
aF0.0036729558662712365
aF0.0020111589799823438
aF3.5394705410439742
aa(lp43
F0.0034730226138005027
aF0.0056355483034195861
aF0.004165024637989987
aF0.0067284257411434545
aF0.0018409439516312916
aF0.0042390121914365995
aF0.0012887074522369899
aF0.0061169999908539299
aF0.0020542983187691859
aF0.0055739285976707902
aF0.0058963397429718286
aF0.00017823127187412333
aF0.0014018875524318829
aF0.0063425767828945486
aF0.0063347203157059244
aF0.0042764297962926039
aF0.0023828033381357045
aF0.0031666528377436425
aF0.0043589466999379061
aF0.0036353237114954639
aF0.0020966181002772233
aF-0.097247169813044779
aF-21.431396149954477
aF0.86288619167548497
aF27.328904508875222
aF-10.234009078828388
aF-17.386663723903396
aF-2.5144611719692684
aF4.752742904018838
aF25.324470690262729
aF-9.7706683264694636
aF-23.187269648732585
aF7.6790835096456318
aF7.5695991328230363
aF21.409133869406595
aF-9.932847882834329
aF-9.7961392516891479
aF0.057869751254498746
aF6.4339684249901294
aF0.0067237789703158343
aF0.0001534336805515703
aF-0.994432767664157
aF-4.1132019167480518
aF-4.7555358941107944
aF0.87207176216004734
aF8.7855040068640413
aF-3.2683565142545357
aF0.90040661890212281
aF-1.7752693705980194
aF-4.3978754149904598
aF-3.7305112998080028
aF-13.972590644607548
aF0.0025966245642974244
aF3.7804902488507688
aF-6.7475469302551234
aF7.2594154863602824
aF-7.5368152786117291
aF-3.7234764170414603
aF3.5315507144978024
aF0.0061201804344172698
aF0.0038620969008897076
aF4.3011029160406977
aF-24.943827236151193
aF-2.4649721403678857
aF5.3897691839306745
aF-7.8189091222779084
aF-9.6757231721087891
aF-12.131572145306015
aF4.0945088114561337
aF-1.6084773944064963
aF5.8400431750261284
aF-8.7605971129857139
aF-0.83034795606875844
aF0.94480287910972793
aF0.68854745213942758
aF-2.2669236302961817
aF4.6195993712850489
aF-12.040159025057568
aF12.856043424273947
aF0.0048920578899520036
aF0.00084250957036079589
aF-0.96828330545604591
aF0.56703451546907557
aF-16.595691007654445
aF1.3590643444529429
aF0.42744359411588784
aF-3.3327067654025178
aF-4.5104275942280623
aF-0.73246172671681997
aF-6.2743805188534125
aF-9.8073815781962281
aF-3.1711940887643548
aF-3.8106704989655356
aF-5.4720265392935499
aF2.8112010902548916
aF-2.2012997108723611
aF5.8464427722353065
aF-4.8599490417622402
aF-3.4164012682777818
aF0.0010424176136278036
aF0.0034815490868716397
aF-2.5574953508466427
aF-12.505196231846529
aF14.632441146413735
aF-9.2523207125709241
aF1.3447822528392086
aF4.3498222217673241
aF10.761405524324488
aF3.8380591408465654
aF-4.7536680895315122
aF0.56955813881250106
aF14.801665577280604
aF-10.63121492588076
aF-5.4350928597378161
aF-3.3264379770264072
aF14.241926099976075
aF-12.098435028203438
aF0.74954389940916044
aF20.845195378890473
aF0.0044414891566674219
aF0.0053509294613591244
aF0.0040246894408986506
aF0.00025654366854879047
aF0.0053963220394885559
aF0.0035089266031425974
aF0.0053111701667408586
aF0.0043758077884755563
aF0.0042557982934663006
aF0.002096865582541769
aF0.0045822378275484016
aF0.0042902209244053708
aF0.0071269052734834765
aF0.0038398055990673183
aF0.0027103910370247491
aF0.0029106850407546016
aF0.0064389526524175006
aF0.0012070616780641228
aF0.0048289338183920326
aF0.0044495187867855633
aF0.00529733682991916
aF2.2082711812460061
aa(lp44
F0.00025783149729377959
aF0.0048729476989878527
aF0.0070436637755339785
aF0.003259266242883026
aF0.0061033908610108999
aF0.0065879637538983748
aF0.0044006260842179784
aF7.657016004337579e-05
aF0.0045509122834361121
aF0.0021341750581800657
aF0.0029977257206465491
aF0.002282385173189609
aF0.0061845871297762653
aF0.0053652693340765049
aF0.0056733547897403107
aF0.0053567131628101507
aF0.0048024926761849
aF0.0071368153295410276
aF0.0013098218035566688
aF0.00076794524491249113
aF0.0029388077932861879
aF20.956009498621778
aF2.1020680456654475
aF-2.1134176370102349
aF-3.4475285852725372
aF6.5719053490733019
aF2.7096017390729261
aF-2.191403027188767
aF1.1647822507385404
aF-11.676426794144398
aF-4.9826221340457586
aF-2.9377234275432498
aF1.6792182187798588
aF2.1919834152305002
aF-2.6726087733029558
aF-1.6939631100025785
aF13.74638064697027
aF-0.94435334122534198
aF-11.004098168903736
aF0.0054645269328992075
aF0.0029132447453483002
aF0.032057363007606525
aF4.4094830861172518
aF-2.3177840622966408
aF1.1039963744291836
aF8.2871062344715565
aF19.740439328698702
aF0.72814211956257269
aF1.052286917040802
aF-2.1968284304296679
aF-3.2686357782162938
aF1.2340074670437899
aF0.0012268868821281506
aF1.098347523172424
aF-1.0181411958597049
aF1.2402767065048808
aF-3.709932719887417
aF4.8809580036467386
aF-3.9864497390175031
aF0.0025086427823994245
aF0.0058041564617368896
aF8.6450303670616435
aF12.810120607504947
aF16.540848493048284
aF8.93553564012287
aF-4.6893624009194248
aF2.0776296368362561
aF7.1877172838695449
aF2.5408419948813195
aF-1.3007022556832806
aF5.6373554981624014
aF-6.2368420759844838
aF2.1618732182834615
aF-4.9749696982326936
aF0.2460185132418142
aF-7.1752986272780364
aF-5.8975482325533033
aF6.4490121584200715
aF-13.523399461378769
aF0.0060634346550377796
aF0.0011547095728208373
aF3.8642236009036823
aF15.343010884526111
aF-1.55539938718667
aF1.6510261861594977
aF2.1235475371997787
aF1.4669990926933401
aF-1.9188680816100794
aF0.65263900600242786
aF4.0683988927632369
aF3.1506748154235642
aF1.7118109866930475
aF-0.95314068203822089
aF3.6208293235190974
aF-0.42091683218585596
aF-1.0604183609177693
aF0.89849936928141128
aF2.5218624635338807
aF-4.667760406334641
aF0.0050396579177786043
aF0.0052141598099370631
aF7.4259281641699539
aF-3.7214764300343717
aF-3.3822215162937352
aF-3.4830888834763236
aF1.5175855751262894
aF-0.28114190988969173
aF-9.825765736852766
aF-5.4762530646737533
aF1.2008693978078209
aF2.3023020133592325
aF-11.924647734358997
aF-4.1604325340704342
aF2.5268723533859938
aF-1.9090646265295672
aF-8.381925221981362
aF-4.8248215124748546
aF5.7100244215940608
aF-8.7178759662352654
aF0.0034796974859966469
aF0.0032334292239262676
aF0.0030760074226951271
aF0.0013849688748131972
aF0.0068313434207995924
aF0.0045828906560773592
aF0.0008865174259101359
aF0.00015346382520902067
aF0.0016656984764391147
aF0.0052612237433506187
aF0.0054953670293314541
aF0.0055170143375678753
aF0.0044717986213356157
aF0.0045648378611331183
aF0.0058424427609359451
aF0.0036605584318506546
aF0.0036541725323028535
aF0.0046068693774374368
aF0.0068390488017521693
aF0.0028563055927854322
aF0.00025922799579883857
aF17.556360382463396
aa(lp45
F0.0047273810500333639
aF0.0015493843673240106
aF0.0057255460091385924
aF0.0043305260865340251
aF0.00096476751874378258
aF0.0027910076151427552
aF0.0069141701401064263
aF0.0041039446954327513
aF0.0022580711102421539
aF0.00084837298218586564
aF0.0026238718604089193
aF0.0018884150402406882
aF0.0010186832026712444
aF0.00049398607250649546
aF0.00068639565250880091
aF0.00700239073920037
aF0.0047485846072558525
aF0.0055438139766929278
aF0.0061869850668431498
aF0.0070725405939032837
aF0.0028184167351423014
aF-6.2967809878660495
aF-0.47291238665501439
aF-1.8405527728423496
aF-1.7943343674036214
aF-1.8264668629142471
aF-2.2025097696258089
aF-2.3024274542508136
aF-2.5000103252862527
aF-2.0070784810028748
aF-2.8706453907190199
aF-3.5506491279820875
aF-3.1388615070351031
aF-3.8161172390686717
aF-0.1886726705529595
aF1.5185960363701687
aF0.72863006308966805
aF-3.0743770833399582
aF-1.4790700101517675
aF0.006493565719276311
aF0.0068100391477061567
aF-0.26374407291978008
aF-3.0852220166613509
aF-2.2725597989488553
aF-0.0097548363386121776
aF-4.1134294823586321
aF-1.6881953427091765
aF-0.00069889137265268626
aF-0.63893241417614455
aF-4.1297835384282573
aF-0.66072178024480044
aF-2.6910717090147229
aF0.0039422399077884236
aF0.011243683709091592
aF-5.8296832906777976
aF-3.355925644657253
aF-0.87426237530786299
aF0.49673037857953262
aF-5.6784347849360914
aF0.0048477481829500785
aF0.001087029074621289
aF0.97544565107958836
aF-4.3718394375308955
aF-0.26969868540992753
aF-1.2767981633643737
aF0.25088747963996816
aF1.6129086277921068
aF3.6684527718497595
aF3.4049765260986171
aF-1.5280350412877195
aF-1.8393127563400755
aF-1.4553588572168141
aF0.52926567667796076
aF-1.2990782856268783
aF-2.1332820456349086
aF-2.2264423244633775
aF0.21333379163162031
aF-1.5667279147889608
aF-6.6249110090749124
aF0.0052794728657446378
aF0.0028958005910756667
aF-1.8360756127655793
aF-2.5713676506728711
aF-4.4362232019670618
aF-0.094297705251504493
aF0.013057905346801306
aF-4.4839217700163561
aF-0.42270492283699229
aF-0.14299174847447182
aF-1.8962551860594492
aF-1.4249202788573048
aF-2.088528238579419
aF-0.28982237610503442
aF-2.1883180638503146
aF-0.43846395818889505
aF-0.24663341395052576
aF-0.0097719999764175128
aF-0.00014489062169902695
aF-4.937249080726688
aF0.0041088540119811161
aF0.00042930920885975643
aF2.3260436808983567
aF2.0798667591224311
aF-1.9915781306105165
aF4.0156220756025318
aF3.5476821548515542
aF-4.0196029368669031
aF1.5508666100216317
aF2.0878099895041395
aF0.40573282285707668
aF1.8746707342843005
aF-0.69533943988733471
aF1.4893357030310674
aF-1.2248041624319546
aF0.074101852327098469
aF0.49090739506130071
aF1.2032790689338719
aF2.8263255927254947
aF0.50786058611735974
aF0.00053895488719673775
aF0.0047557246371007049
aF0.0024314165878963497
aF0.0010077479303115264
aF0.00012553744167386431
aF0.00067583992471800163
aF0.0015935957685126211
aF0.0016446103459877212
aF0.0046229053090197179
aF0.0068787106322815202
aF0.0026828486489652169
aF0.0021404863885614109
aF0.0037445546120028379
aF0.0044850214371572657
aF0.00088522602333202286
aF0.0069033673382624516
aF0.0042676826085444024
aF0.0064408080774716863
aF0.0056809207837216474
aF0.0019838222107853029
aF0.0058166813695859371
aF1.4049497137253522
aa(lp46
F0.00605275651496148
aF0.005953813500009543
aF0.0038619343501944737
aF0.0014733966016090164
aF0.00099961243630947248
aF0.0061806351179828347
aF0.0041268230433662611
aF0.0041004607522804014
aF0.0029811028831863784
aF0.0066137268711086829
aF0.0034679049023544186
aF0.0065050313891763765
aF0.006537332726590842
aF0.0053772803061426597
aF0.0019194664379646256
aF0.004786756719123559
aF0.0019700834500872267
aF0.0068102574246734979
aF0.00082872948793486661
aF0.0068962069304512779
aF0.00045024560756879838
aF-8.1031853476595348
aF5.1954066252029163
aF-13.432029867162626
aF-8.914232398634006
aF-3.3863616993297034
aF21.082243035791659
aF-16.259340206574233
aF-17.00913328557057
aF-15.697800311855815
aF1.7827875496825645
aF-1.3291837634389965
aF3.0094607893245549
aF1.2146120246835359
aF5.4856609269928924
aF-3.1972829124261022
aF-4.7328646548453133
aF1.0481866576591148
aF-9.1040155449724534
aF0.0068737123653518075
aF0.0061109149229047746
aF-0.35988339999345043
aF10.849220018382784
aF-5.3270944258362558
aF1.7421210488185457
aF-13.660755739688376
aF21.233551525992741
aF-0.7605911772255799
aF0.4714049721386403
aF-11.855349507242652
aF-4.7983092257695947
aF-1.1879238500033797
aF0.0035169472457015198
aF2.3187913030474467
aF-4.4512007098568187
aF-5.155088622768405
aF2.9190581623834371
aF-4.1308206330918509
aF-6.4795815025452885
aF0.0034606929296254981
aF0.0039576909632668029
aF-4.1100183435337456
aF1.2352905324251724
aF6.1925496041884118
aF-3.1138243097840017
aF-4.6281502929546621
aF6.3804471661568929
aF3.6278301605259395
aF-8.2519626543305726
aF-11.722693968019824
aF-1.9767743621986062
aF-2.3200067885653084
aF1.3325072056567031
aF-1.3924501085790932
aF-2.1719433341989975
aF-0.14909650883159511
aF0.53084507831093652
aF13.534719801224062
aF-6.3096599452647188
aF0.00219866079111678
aF0.001588320389369268
aF-5.6712301989668488
aF6.8726258977315533
aF7.6913579014894591
aF-1.3621297544905189
aF-7.3168608534412698
aF12.491703131592795
aF-1.5166637766105555
aF0.0065838040211145784
aF-1.2842644383407116
aF-0.70425757333532168
aF10.360524111316249
aF0.94491118262966745
aF0.41378450426699642
aF-1.1081254070612092
aF-2.356314408895162
aF-2.4362715577638596
aF2.4831293384840754
aF0.6020979172728268
aF0.0034453848300049295
aF0.0013462186198317286
aF2.8147276183863492
aF0.70860951228802316
aF2.3599263117362628
aF0.90865945336119713
aF9.5676302649705214
aF3.9776870965832276
aF16.709256566524832
aF0.63299917178130649
aF-1.3664879450321843
aF1.101753062329476
aF3.2231099494495239
aF0.25840040168270234
aF1.6618069642755284
aF4.8815838042429727
aF4.103525175690633
aF0.43996521830597962
aF1.1516284501658944
aF2.9822762647597485
aF0.00014805579981085258
aF0.0050695543265936328
aF0.0049240361836995388
aF0.0013634986542975212
aF0.0037058324733391054
aF0.0046244325500269115
aF0.0063726083891486526
aF0.0047488914465266532
aF0.0039744562196139853
aF0.0021025017760615702
aF0.0055647548195055284
aF0.0062211715084129187
aF0.0021789696407197405
aF0.0012538850708018238
aF0.0022539884528715026
aF0.0045586932300459067
aF0.0042866465125477489
aF0.0017147961255288573
aF0.0071232838239158689
aF0.00053615672341174672
aF0.00028604510935704389
aF7.7715349283886361
aa(lp47
F0.0038678412127446295
aF0.0026003152221292999
aF0.0012440869772439879
aF0.0048438480405475918
aF0.0030243626486895262
aF0.0055630002884531696
aF0.0034264665200256306
aF0.0024854353903624648
aF0.005101461374769376
aF0.0020486645682749518
aF0.0070639832836888409
aF0.00075199746218954251
aF0.001058158220261381
aF0.0041376499747608469
aF0.0046250193184208992
aF0.0020036141228508991
aF0.0064660832624523447
aF0.0054017464024269397
aF0.0013556942405908822
aF0.0032116023814698579
aF0.001700011220106183
aF5.9128652991561168
aF-2.1027868499073397
aF4.2983242662799608
aF3.0174695707818553
aF1.6948750971304876
aF10.288610677372677
aF4.0943203885117736
aF4.8831706746341004
aF6.6733733778998934
aF-4.4576138575692168
aF0.12126755776713023
aF-4.0948766075428447
aF-4.2947722828903787
aF-2.9632995856401414
aF-1.1181009543873333
aF1.5339000162464904
aF-3.1527452632220734
aF-5.3152506732663287
aF0.0011467294920538852
aF0.0058803298515192519
aF-0.057626884686140419
aF6.865459849693039
aF-2.7907862505029293
aF0.0048723707956200507
aF-5.5128989514905076
aF-2.9867823415149402
aF-0.30807303863833574
aF-0.056244163028421612
aF-13.773030706875593
aF-0.34623073426943202
aF-2.6525101492968362
aF0.0056258689175361963
aF0.0085884956582651054
aF-6.7871677838857929
aF-3.2627280465752322
aF-3.0013302124016175
aF-3.4170824856241468
aF-3.2881258615387687
aF0.0053388696691898637
aF0.004741739010267209
aF-1.0798284426355111
aF-3.2979485441402461
aF-0.75205259980836614
aF-5.6366671338285057
aF-0.75275169509630757
aF-6.037326492904719
aF-5.6039673072866467
aF-10.990563687208853
aF-13.720287661262061
aF-3.2872361093808142
aF-2.0643269488935201
aF2.5194805989924296
aF-1.768546492973011
aF-1.0816636504207688
aF-3.215146933126142
aF5.3638044948921362
aF-2.2189831653721779
aF-3.6993901102535585
aF0.0033621021708666226
aF0.0006393839055171285
aF-0.14933720158573174
aF-2.2241972944508697
aF-0.77291759465329768
aF-0.32238141470487691
aF-0.25929148772284161
aF-7.658281104819606
aF-0.038477000651076475
aF-0.11632165009196088
aF-0.5610764057783082
aF1.0510852362944161
aF1.7207855471353735
aF0.048499158617706352
aF-0.59827576942125971
aF-0.76638549715821136
aF-0.066054190771757143
aF-0.27448702592982144
aF-0.15767099674012328
aF-5.3441938624114274
aF0.0024779295996034496
aF0.0043948607323115564
aF-1.0265461419023201
aF-7.0652726112079849
aF-4.9323201872084512
aF1.7001842662450319
aF5.2234541757551929
aF-2.5314563923506435
aF-3.6109547747359216
aF-1.9027086574484047
aF-1.0615642866832851
aF-4.3393255593126518
aF0.68638895517447795
aF-1.718956792510445
aF-3.3057592166084708
aF-2.4198503928821307
aF-1.0320431757089346
aF0.24428998269782232
aF-0.58966290939936838
aF-3.8193463104142968
aF0.0022552524216586951
aF0.0063585087392571786
aF0.0068768515406871815
aF0.00068842313801005886
aF0.0061422168987077738
aF0.0042372676389881075
aF0.004100681656820866
aF0.0025427718991542711
aF0.0043450847870137059
aF0.0055099870133699918
aF0.0025520880001342078
aF0.006691110730672906
aF0.0044247595170825854
aF0.00023031203551062378
aF0.0063237162463749752
aF0.0070362232190931562
aF0.0018948147587634586
aF0.0047935043606350345
aF0.006156934999409211
aF0.0021201317198287304
aF0.0016220263849210754
aF3.5795796055971132
aa(lp48
F0.00063620444806397299
aF0.0012412863603327416
aF0.0024566820088056042
aF0.0020104266658079809
aF0.0049089858944572117
aF0.0015754619517901961
aF0.0022049783195666004
aF0.0051218978768292171
aF0.0047117354145958055
aF0.0016245601847721812
aF0.0049788169763359631
aF0.0039864725963303232
aF0.0050941495090898077
aF0.0022153704676365882
aF0.002095220140507371
aF0.0052974794611903879
aF0.0065862953842041215
aF0.0031308946124684123
aF0.0045262010962034754
aF0.0066706970243481248
aF0.0040192478979917644
aF-1.2960560948435216
aF11.601377341730648
aF-4.3304750914595891
aF3.2169205823269937
aF-0.93781181316120854
aF-9.9596247133709728
aF16.405099592307497
aF-4.5381715203471416
aF-6.2394986869258071
aF1.7829243572012503
aF-2.6973279107211861
aF-6.1075679629111663
aF11.866056449474076
aF0.52506156309189078
aF-7.5499965392855612
aF-4.4844506303179283
aF7.0429003196667885
aF-8.1389210697304346
aF0.0038679280318900406
aF0.0068023262558773705
aF-0.56877539277238431
aF-9.1724935535677918
aF5.2198028563486041
aF-4.3268822932691906
aF-0.90620960387396132
aF-0.93353429202002947
aF1.0282077214808494
aF-0.23030211119452515
aF0.6540661526243281
aF4.7145392802510155
aF4.6248197041565575
aF0.0014705377395332921
aF-1.0253588015542849
aF0.92278950426232775
aF-1.9390011892402497
aF-4.2485087692023651
aF-2.4677809221240334
aF-3.8499245196214322
aF0.0022850535924930138
aF0.0029574462879080362
aF-7.7424602552775381
aF-9.4646401690061861
aF8.983724071674585
aF-5.3031546369445026
aF-4.7943961540002222
aF11.128431759054852
aF-5.5224091734273397
aF10.350034274260402
aF1.9196725051857433
aF-3.9097926306394384
aF-4.9551988645818179
aF-7.1949940947925795
aF-1.1233763036639157
aF11.303525246568032
aF-9.5423964472197866
aF-0.48147003193745674
aF0.37336765868429089
aF10.295163274380352
aF0.0027997846734154389
aF0.0011163130303527375
aF-3.2744438476400481
aF-1.1641809574388975
aF1.4094809413285889
aF-0.5227724439251108
aF1.5082425138418276
aF-3.1203451748946316
aF2.0993311601282199
aF0.93201503768645599
aF-3.2750571613081769
aF-2.1845936474477843
aF-1.5898269103407001
aF-1.557430920411885
aF-1.7763891815629511
aF3.3614446796790043
aF2.4084001346304014
aF1.9580890082887867
aF-0.96206613029013655
aF-3.1173408282530639
aF0.0021455962204607287
aF0.00078191386645122258
aF0.51662447096971409
aF-5.1906515803678106
aF1.8150412982235777
aF-0.72257641824404573
aF-10.173827776576109
aF23.161853239767854
aF-8.4027027152369467
aF-4.8600431983396986
aF-2.67533139757992
aF1.3665830862778769
aF1.5020640219379733
aF-8.125702013023492
aF-1.3732857003043808
aF1.7095689835724119
aF2.3613054094737538
aF-3.4267947211335321
aF0.97143142031928542
aF-1.1907804261715129
aF0.005958444633005584
aF0.0035259246310982159
aF0.00038968824090474213
aF0.0030138705318627423
aF0.0020455952910994725
aF0.0023911750157279209
aF0.00089663207755389621
aF0.0039755874320646679
aF0.0061374513295332431
aF0.0034957682015252503
aF0.0034306134608564141
aF0.005056270476803508
aF0.00080377493651508612
aF0.0056387552602295337
aF0.00010679271518257347
aF0.0055231781024665094
aF0.0025753277816473281
aF0.0037253270972928756
aF0.0017273002632320631
aF0.0046033109636512033
aF0.0060064475609660122
aF3.2350188647039309
aa(lp49
F0.0024181597113788833
aF0.00059581573157444976
aF0.0048716791639766997
aF0.0052978496449118534
aF0.00037385831859131752
aF0.0036888676730451337
aF0.0044498111104546529
aF0.0058147089064516924
aF0.0058530777408692218
aF0.0035118431829871772
aF0.0012258067726740032
aF0.0011852102667131445
aF0.0047022320718234254
aF0.0037710360288661956
aF0.00053749561477309563
aF0.0044311021648216677
aF0.002233453013285086
aF0.0061994672208083258
aF0.0033570710583872994
aF0.0046864970801829709
aF0.00017453116963855953
aF-8.2409275445832844
aF-1.4588855849179234
aF-6.1576032156719869
aF-6.2533014233462705
aF17.017800807336481
aF-4.149116598904798
aF-2.8430617342512519
aF-0.81001689630769158
aF0.0866961352646623
aF-2.279003618707617
aF-3.5115224207359379
aF0.16895755455668318
aF-8.4780673064683221
aF-4.2238646190743969
aF23.141898117133792
aF1.0579187082914099
aF-18.112455397203849
aF-7.2347911115361532
aF0.0016384494988810189
aF0.004628318197826854
aF0.045845299454381282
aF-1.8047708767165587
aF-1.9083503278211154
aF0.00055457126675361997
aF10.438078325196681
aF-1.3027021221160977
aF1.1817569332850708
aF0.037441729339062986
aF-1.8910107971988535
aF-0.90874660986469635
aF-0.37189145220976916
aF0.00056942666613853153
aF0.0062775943205867803
aF-2.3772202655232118
aF21.048685233504241
aF1.1912529083365184
aF-3.3353649084132782
aF4.5471974570785001
aF0.0018776449194513759
aF0.006541170825724427
aF-4.5691158270180416
aF0.32709534218933178
aF0.36386285539896296
aF-1.5589228912368336
aF-4.4027021157337431
aF-0.59411855220502452
aF-3.1798641311282787
aF-2.2473042308568369
aF-1.6035711826916039
aF0.62085161384042198
aF-2.307871323452126
aF-6.7488109396441951
aF4.0827234692550176
aF3.8852636776203755
aF5.0825729095696133
aF3.6160896913288112
aF0.29558078669803839
aF-4.2574172429290726
aF0.0041723389353054332
aF0.0014112251724199118
aF-2.1081460589961378
aF4.9292737171738761
aF-4.2256702513098645
aF2.5814884810009757
aF-2.6458670023580257
aF7.592555808875864
aF-1.9804527443520932
aF-0.37822616458040659
aF2.7906638670972401
aF-1.4903802353466538
aF3.6128441564463971
aF-4.1414230875277278
aF10.577201794844338
aF-1.0949349512029853
aF0.038707844392447538
aF0.72043205086378637
aF2.4731662911926273
aF-0.73177396258483618
aF0.00071375902663089943
aF0.0020204303507184219
aF-1.121975955233121
aF1.9283863770916874
aF0.92914670929376164
aF2.2772693678092422
aF0.70083961322477295
aF0.47815288086437036
aF3.4514789328340312
aF-0.6542657179503707
aF-1.4818848138977647
aF0.83401904171490215
aF2.3613613899946269
aF-2.7943375298208899
aF-0.55806104732582884
aF4.2064582846612488
aF6.1055079239793528
aF-0.36878172143063731
aF2.7522361345271462
aF-1.206915693097538
aF0.0065968983617533004
aF0.0048175394514179326
aF0.0028845098224595436
aF0.0012976392130952094
aF0.001155308930398716
aF0.0061607362889518867
aF0.0053758517970623572
aF0.0035312949369945492
aF0.00026073442589918472
aF0.0043653063029484712
aF0.0048406957507132527
aF0.0038602223586564699
aF0.0064858384421791881
aF0.0027562144702231069
aF0.0031966916689929173
aF0.0031509122169705258
aF0.0053654599326278503
aF0.00035197741351264411
aF0.0062141276589154394
aF0.0065391280327045552
aF0.0037025947717220795
aF12.650702353534738
aa(lp50
F0.0068375959143428811
aF0.001565623034688208
aF0.0028610397012779564
aF0.00074141988455242284
aF0.005112092709027123
aF0.0023075327506103852
aF0.0042381959982858508
aF0.0030565269033172859
aF0.0015842285780166133
aF0.00045635588936315569
aF0.0020845685828678865
aF0.00096807828330866541
aF0.0052369096447961953
aF0.00069513304051134527
aF0.0056643021149261012
aF0.0022721388266895735
aF0.0051519015847564086
aF0.0066965506905280582
aF0.0042748594224038643
aF0.0015015449163569116
aF0.00064308145415892725
aF-16.465717881542073
aF-6.6907800539165354
aF-1.853523907757465
aF10.283381422356776
aF2.3308960103073955
aF-12.587653620343721
aF-17.536932207273416
aF-2.4558443421367935
aF-5.2402737264791082
aF-3.2029990145428737
aF2.3768591672968578
aF-9.346826903924395
aF-17.57086530737655
aF-3.2020334547631122
aF2.6036777446375887
aF-1.0024435605647646
aF13.586397006557984
aF-7.5086949591744752
aF0.0030600078870182592
aF0.0045449830098861516
aF-0.41607753561288513
aF-6.2348674581963088
aF-3.9820596739658964
aF-0.6462232019572961
aF-0.61118518333187721
aF1.4018822217326592
aF0.86579939051602128
aF-1.5933314750075314
aF6.0839910074202574
aF7.2847571462588645
aF6.1089284669294628
aF0.0035072146722088344
aF-0.69714532283725317
aF0.50588560575764507
aF-0.84367409939686899
aF-4.418334704414927
aF-4.6940635274086775
aF-7.5396010988635256
aF0.0011356136750505126
aF0.0019885489178109324
aF-18.133128137030045
aF-7.600859121562209
aF-13.902079703322768
aF-1.8644659766079046
aF3.102759199332652
aF15.30484891937493
aF1.1050330639827342
aF-0.2674699351660435
aF7.9431249531827621
aF8.3877719945706879
aF6.6009664926936207
aF1.496674377880084
aF-6.1105666965991654
aF3.4931128638873377
aF4.8690838717186846
aF12.467497271339258
aF-6.8253705707346279
aF23.927090303394969
aF0.0023598664834293278
aF0.0031735312574110372
aF-0.046217032472665689
aF-6.592171424543678
aF-5.7602702246174751
aF-2.9729840595550048
aF-0.88821969533749734
aF-2.198938358991021
aF2.2529139152801729
aF-0.046053171376757809
aF-4.2938144420768625
aF-4.5431897462498521
aF-5.1781198457379638
aF1.7656446059427526
aF1.8516874386223761
aF-2.8890537125217635
aF-1.191802634061732
aF-4.7292363721478443
aF0.27698881769168504
aF-6.4921908359166469
aF0.0059232521796538746
aF0.00624052405026754
aF-13.326261819935445
aF-8.2362180429457847
aF-15.415925694181174
aF-5.260133402552766
aF-3.0797662979495248
aF1.4708224078628749
aF5.6584114324669015
aF3.6116068346735699
aF19.520656894060107
aF-1.0941277747105536
aF-9.7061820758708599
aF3.7279055774159451
aF-5.5947150714850817
aF-3.1337141094411036
aF2.386506329291902
aF4.9102488460225491
aF-3.4376640123774247
aF9.9872558786572743
aF0.0025682502305351042
aF0.00049855689083701997
aF0.0070835667505632595
aF0.0033173988466156964
aF0.00051860867712905578
aF0.0049114990492407822
aF0.0042805836964110765
aF0.0069892543477597501
aF0.0048687081619147527
aF0.0016837844135371958
aF0.0046489947066308988
aF0.0064470012151881572
aF0.0036078690547834929
aF0.0033209555116682698
aF0.0053674500956171012
aF0.001898018297234589
aF0.0065040474686653971
aF0.0027569091729559713
aF0.0033523672408225734
aF0.0025653187869492272
aF0.00027097336906851201
aF-0.81094895525131705
aa(lp51
F0.00086576925512238943
aF0.0021099232907668799
aF0.0025317906632243235
aF0.0068533016029462225
aF0.0016726947043099174
aF0.0022384127644340737
aF0.0052775465216753472
aF0.0038699237967118366
aF0.0023469978621708369
aF0.0038309353697626352
aF0.0011223109335280995
aF0.0062234676211980356
aF9.2021542767795056e-05
aF0.0037136116521050582
aF0.0044457165045547571
aF0.0054616150358828075
aF0.0047652467610745193
aF0.0012488863559354628
aF0.0065521240308694922
aF0.0046666564261892496
aF0.0054233405193933335
aF-4.5267683560612255
aF3.8614539528638034
aF-4.0516554030282004
aF0.18939807310190035
aF-2.8315369910513728
aF-3.4332824037471568
aF-3.4733933362742353
aF-3.6380680980549571
aF-9.7017485287477943
aF-3.0318095247772656
aF-8.9196814032669138
aF1.2400776145746037
aF-1.4339193284613545
aF-1.8972923727254456
aF0.063155523764575755
aF1.9618916682634648
aF-8.1587069038839157
aF-3.8010238878694835
aF0.0018324002029274865
aF0.0054038881706077726
aF-1.8581595192722853
aF-2.9069435114845645
aF-6.0532615230197138
aF-0.28549754912673297
aF-4.074792062307993
aF-0.48294208433229524
aF-3.1779517884680333
aF-5.8732698450579761
aF-1.052855312799599
aF0.73111256005561309
aF-2.8994003515995734
aF0.003338492311168036
aF-1.4835327820942559
aF-5.0734975329876644
aF-5.4537343143251524
aF-0.40501662914091935
aF1.0464077969930394
aF-5.2198530893779349
aF0.0057430952949357053
aF0.0034124899532152111
aF-3.1716242653951077
aF3.4826324346128419
aF-7.5404196907259875
aF-1.4617034229081964
aF-4.446510766687088
aF-0.87007111159062955
aF4.3046402145625731
aF-0.28529587139474177
aF-2.9749714396976246
aF-0.52039073579794448
aF0.019117928054029825
aF-7.5760444236884963
aF0.88658789863436405
aF2.5828096070874396
aF-2.8292682828147755
aF2.2880403734789994
aF-0.96604299903920521
aF-3.1712883090470041
aF0.00077079237420040196
aF0.0029191778831963422
aF0.26783819195164527
aF-8.1140787439187605
aF-1.4227145672053627
aF-5.2584517267675865
aF-0.47511120266615203
aF-0.12634233129198155
aF-4.4725633363741517
aF5.8872948499444515
aF-6.9979884146304032
aF-4.2582339807396687
aF-0.54926883084976175
aF-3.2052775772272497
aF-2.035505088642994
aF-2.6756170777894162
aF-0.69394248118794821
aF-1.4346396136089095
aF-2.5425845202472308
aF-6.4210165360536982
aF0.0021068580228574053
aF0.0025333634342165315
aF1.4027508767296797
aF2.7663660748436314
aF-2.7574793109875606
aF3.3292328550795798
aF-4.8529306042937348
aF5.9457501031151025
aF5.1560702342064442
aF4.4321014308360835
aF1.8715937440695067
aF2.5888476097378241
aF3.8994433571135287
aF-1.5458880609943166
aF-0.69941753795544559
aF2.5975177154449116
aF2.0052097623930556
aF0.07321326837595854
aF0.022387276551125119
aF-0.75370443664238784
aF0.0025693822141038807
aF0.0047666223512415219
aF0.0016872046953312419
aF0.0016271588582780906
aF0.0041418397059577363
aF0.0032886247986831413
aF0.00032060787000582903
aF0.0067849753250426347
aF0.0061335588856987989
aF0.0029464485774286842
aF0.0014115202002212557
aF0.0058531739898618337
aF0.0057633131625691534
aF0.0053907498112457097
aF0.0058259898965681706
aF0.0027765421514043876
aF0.00038362628684621304
aF0.0034413956457680756
aF0.0051085019559133612
aF0.00053625029483673201
aF0.0030163604643948581
aF-10.129241808004711
aa(lp52
F0.00034034685455440196
aF0.0042713448624464032
aF9.4465127822501713e-05
aF0.0060338906953803723
aF0.0066708754578263911
aF0.0023368331768069748
aF0.0028911739406874159
aF0.006196950461975494
aF0.0015768748193275054
aF0.0017918638580566146
aF0.0035824465321140269
aF0.0014394721617814385
aF0.0026608275440554185
aF0.0070038430915453235
aF0.0014995650452502229
aF0.0046933340849981998
aF0.0067382426777154751
aF0.0014386315463805349
aF0.00086896758551811165
aF0.0043755522254198074
aF0.002876815908275588
aF-4.4691593631059545
aF-8.1887185557656093
aF-0.799236704642175
aF2.7781537979220952
aF1.0124676443046046
aF7.349369735610404
aF5.0016452893923002
aF7.4920347898371489
aF-8.1206680694777305
aF-2.8366422527537711
aF14.223840952556113
aF-6.8284826047010467
aF9.2926352995885342
aF-18.87721521794645
aF2.2974591473564097
aF14.411722871450426
aF15.13332449541841
aF7.6684198720947983
aF0.0052475169441427022
aF0.0033364288350330334
aF-0.18517172918170358
aF-2.6075146681123589
aF1.7170077673405555
aF-3.6083937865633002
aF-0.54864864949389114
aF-4.7253718708301271
aF-0.84907694024908442
aF4.8239982308342713
aF2.9483921921669078
aF4.0306800078003233
aF-8.1359182973305018
aF0.0013539664753041802
aF-7.99022341200829
aF2.4942733788853086
aF4.2041342059126006
aF-3.5253464444861349
aF-10.413983025756778
aF4.207044865359669
aF0.0060511776440300268
aF0.00647621541378267
aF-4.7614987144941079
aF6.5306053184336168
aF-13.879422429821911
aF3.6105104619594401
aF7.7651234918364862
aF-8.4089077999521074
aF2.8111456780997992
aF-4.1376586082153839
aF9.36378350446771
aF-8.5559356544639744
aF5.1401023072919401
aF-0.22889214225891291
aF7.616808922680649
aF-8.3855662799220152
aF-14.086839759494904
aF2.5653631765098126
aF13.880250440420015
aF-19.209417542905772
aF0.0017146079949016014
aF0.0028150677061659587
aF-1.9053277197998846
aF-3.845512668341287
aF3.9136717595371708
aF-1.0828086126145071
aF5.0539185576867665
aF-8.8137681854882732
aF-1.187794228889441
aF1.8657325921801982
aF-7.4783152974734399
aF2.4190284847046724
aF-7.5091756239293153
aF-6.3430620253139498
aF-6.0278465437314868
aF-3.7607018716875098
aF-2.2546150409056187
aF-1.8574579343786706
aF-9.0651095926242728
aF2.9448660657466839
aF0.00089670386806774735
aF0.0028943662559884802
aF-17.020060374372449
aF16.09667838754677
aF-15.806146091434565
aF-0.99360994416646398
aF5.3342183604214686
aF-4.4511138759753432
aF-5.7611353304467343
aF-3.3131913051867934
aF6.6769974167463086
aF-10.348221691234929
aF-6.471979020612916
aF7.9273278340185209
aF4.1329105770322725
aF-7.3298070606951669
aF-10.28837545156737
aF0.87996097473863089
aF5.301032114720174
aF11.012382260688584
aF0.0031365352950712974
aF0.0021598973959720759
aF0.0065713595836036131
aF0.00076425830978095661
aF0.0025377425022934815
aF0.0017292947275117827
aF0.0056770534280845657
aF0.0051664430629630668
aF0.0024783225047413562
aF0.0056583712235119604
aF0.0033156841300981247
aF0.0051102669853540115
aF0.0048344685225309124
aF0.0022825017918520416
aF0.0051769419693872649
aF0.0032119983872621097
aF0.0033340360056082741
aF0.0036866987186740838
aF0.0022898866491851307
aF0.0054162681376151798
aF0.0051605311759849483
aF2.7049989489048754
aa(lp53
F0.0024497319731861429
aF0.00050849079080242225
aF0.0028957032723627937
aF0.0036046614022685131
aF0.00671704916420363
aF0.0063378066640078857
aF0.0048258557669182923
aF0.0049646297930337618
aF0.0023858352110759907
aF0.0011500159870006989
aF0.0055436305142525693
aF0.0039708948091089118
aF0.00065521291831311941
aF0.0015386776297285386
aF0.0045735875396192326
aF0.00098040086198106853
aF0.0049636879885511841
aF0.003930078589405377
aF0.0052705901636349263
aF0.0037396535202183245
aF0.0010094170041600277
aF-13.10025342171231
aF1.2801242394930621
aF-2.4501015646881235
aF-2.0722223811356408
aF4.630495698723422
aF2.2793682240065487
aF-4.8718223525591036
aF2.1928177566979974
aF2.854902080195683
aF-3.6910578204212459
aF-3.9541666751139775
aF-5.7057909763299506
aF-3.7133554619174562
aF4.9135612953545058
aF-0.74440274227519176
aF7.8939231258685343
aF7.2603825756105644
aF6.6855330018102181
aF0.0015816098109761091
aF0.0017729130586187985
aF-1.5755041115144424
aF-2.002436636771856
aF-7.8661806707443072
aF-1.4472593022859295
aF-9.2093408442913969
aF-0.40678591178057982
aF2.9800509293015485
aF-3.8270147334954205
aF-9.7241610471494031
aF-0.50893542247547496
aF-6.6874157382789932
aF0.006959794005423665
aF-1.5850499190026284
aF-6.1519906908246931
aF-0.72296010906283359
aF-2.8711808124470632
aF-11.792825650170613
aF-3.4740458434753725
aF0.00051137161006903191
aF0.0036440890183427723
aF-4.5245837917663714
aF-10.815313956163189
aF-7.895961251721026
aF-4.6007592691832864
aF-1.8747199854317267
aF-7.5021349207387207
aF-2.9555869789383706
aF12.137719249588738
aF11.736986434086658
aF9.9582834321240981
aF-7.9635209928875152
aF7.1833983217397934
aF19.119541310140839
aF7.796907038407161
aF-0.93632326423671497
aF9.0065591693412923
aF16.561217626252844
aF1.5741235016267092
aF0.0054940166394175857
aF0.0028183669306309569
aF-7.9960931803741113
aF-3.1445564179590564
aF-7.8964004686760507
aF6.0179642493409222
aF-4.1536328927892905
aF-4.2420250780382114
aF-0.044848855549948538
aF-0.71584070167978275
aF-9.4761968723947128
aF-1.4302713552037984
aF-3.6043856661553462
aF-0.67275138553996716
aF-3.8180019430907679
aF4.1230866933493333
aF-1.6428436559069739
aF-1.2269676139819841
aF-7.7576799248154549
aF4.5759738862977688
aF0.0004862603667214384
aF0.0047174091784071785
aF-5.1107113878287729
aF1.4920230716289733
aF0.32093001593940679
aF6.4158624973985212
aF4.4845774370348614
aF4.0134653092374322
aF-6.287696118926525
aF4.7182065212690096
aF19.289290483088273
aF-7.0725610630028015
aF0.56490202059952632
aF4.2647930994300198
aF4.6334148968300735
aF-4.52497781011939
aF-7.8262305527483864
aF-5.4017953189522805
aF13.797691464998755
aF10.173942942939281
aF0.0065007568883002787
aF0.0015394911303705627
aF0.0052741619574535135
aF0.0010823014099384219
aF0.0011130933320640834
aF0.0058839445555333757
aF0.0047887087348061014
aF0.005830525800962388
aF0.0030357060224959326
aF0.0045358513788583419
aF0.0059690943083911176
aF0.0044854930022309464
aF0.0070312942248717154
aF2.7966918647591234e-05
aF0.0047342412489095407
aF0.0052302238629001255
aF0.0064636552983157788
aF0.0038632966529933087
aF0.0035358272273295333
aF0.00032290064297067886
aF0.00075956085008193936
aF17.680076338859156
aa(lp54
F0.0069194441884262341
aF0.0037600307924772862
aF0.0047161191886494593
aF0.0065980797000581865
aF0.0046631839636015904
aF0.0032131004678955357
aF0.0027481420892970566
aF0.00046871252323716993
aF0.00018343801073909379
aF0.0020270621341904414
aF0.0056136471020698407
aF0.0045940570256501551
aF0.0016893581275384112
aF0.0036629178606575798
aF0.0021317493868857466
aF0.0024175420790101838
aF0.0023634013195240324
aF0.0041276386317184903
aF0.0064226094133533803
aF0.0022689721240063102
aF0.0049546090724025453
aF-15.64969344878798
aF-20.675773561992223
aF12.97193695504038
aF3.6695333332724598
aF7.8591172470164432
aF0.45416695105277771
aF22.404332441652691
aF28.415170074458601
aF0.9301591125882096
aF24.288760725452242
aF29.164430491644978
aF18.262422399462935
aF18.808324789229744
aF-2.5008494047251735
aF-4.2710154504991955
aF13.948440747855107
aF-3.04436755079931
aF7.9491907051182631
aF0.004514646544197678
aF0.0059381445874886066
aF-0.29358760818360585
aF-10.632454344290551
aF5.3062573212449919
aF3.2986066931657789
aF-1.0301007130783553
aF4.8563481745495176
aF-3.6301145757525535
aF0.95101757671111642
aF5.6085443691742185
aF-3.492690285120708
aF0.31831242453052289
aF0.0049272135956095519
aF2.6544144044579441
aF6.8664974465689772
aF1.9449784281464171
aF5.7304659728107552
aF6.0960306273453391
aF-1.0258519564684858
aF0.0023679394756074001
aF0.0033272862437237235
aF-13.819508907008176
aF1.0846267038551833
aF1.1982258641654053
aF5.9513959812097621
aF-4.709111619585939
aF-0.20591020360274881
aF11.037592287662767
aF-3.1685941608861858
aF0.63215357633620317
aF-4.2512671460608766
aF-0.48297452147558434
aF7.2010843993881979
aF-3.6116878330575855
aF6.7444006650864639
aF4.8751582500417507
aF-2.7464235377938118
aF8.3734112899055653
aF0.31031452118081992
aF0.0032769280275410026
aF0.0012306015347430452
aF-0.94253530321304158
aF3.3139711530159737
aF-4.9707521308614808
aF-3.4256802604249157
aF-1.3774569688551461
aF-10.800027068776899
aF-2.051819945083964
aF-1.3121954345204976
aF-0.4572535483699785
aF7.6315132599451099
aF-3.8629990067087885
aF-0.15208815937357417
aF2.0129310815603274
aF-4.7027466028702314
aF-0.5159082143128132
aF-3.610537560019706
aF1.3069914638898978
aF10.787458026610601
aF0.0045743136440484968
aF0.0066659628141608231
aF-13.211272130441818
aF-2.6250369422084217
aF0.74929396351327127
aF8.05373042520519
aF0.97873058292573356
aF-0.15123501890493574
aF6.4634758848420582
aF11.035661108596782
aF5.4701013894346637
aF10.725387515888871
aF-1.5514476350865631
aF-1.8927279884642141
aF9.1896224127247716
aF18.186156129563784
aF20.139246861180972
aF12.849808877923978
aF7.28142396470016
aF8.3831860552612021
aF0.0071278861271839656
aF0.0069462720273362364
aF0.0046947689872883346
aF0.00062028400235761446
aF0.0035795974676475235
aF0.0016541739371261483
aF0.003374475142901576
aF0.0038646498258694158
aF0.0052867245219746142
aF0.0011209092346533961
aF0.0047688238113286381
aF0.0018132602059166701
aF0.0048822150037993216
aF0.0026977958788382281
aF0.0054116178530982514
aF0.005517993581886052
aF0.0032816694893731458
aF0.00029908082277361667
aF0.0053256283376145056
aF0.0042168284201820356
aF0.0041044297809077939
aF54.330196258491476
aa(lp55
F0.0043750169121398348
aF0.0016318068888610728
aF0.00098119324224710822
aF0.0060143223971410621
aF0.00044442185106098321
aF0.0059726122077126608
aF0.0060074936322377769
aF0.003571470511028298
aF0.0033845194695695793
aF0.0038305912818325525
aF0.0013711046691804658
aF0.0024222925889175709
aF0.00055368899398948338
aF0.0049444760639764411
aF0.00054001418309980649
aF0.0028504851001863196
aF0.0028000046521855482
aF0.0017775262656917073
aF0.0034140965866930393
aF6.8050436972679124e-05
aF0.0066812996049782558
aF-1.6475514784045671
aF-5.8974179240504778
aF12.817256571810519
aF-8.9957586423242457
aF-6.0388689303702412
aF15.063125378648515
aF-9.8638203900871879
aF-7.5471312818462515
aF-8.5868454809308155
aF-1.9617969650163829
aF12.960080851630172
aF-2.414308829885679
aF-7.7334446591088319
aF-4.5135860788145532
aF-1.1938171436816205
aF1.9630902349003034
aF4.7324648938806311
aF-7.3321053442116382
aF0.0071377199360942211
aF0.0028928848771908955
aF-0.93173522697860278
aF2.0597091732096637
aF15.906439812124743
aF-0.87777720274796089
aF-5.5486481100569245
aF-17.03793507482581
aF0.53847025935678106
aF-1.5275928908734442
aF-0.61302274516043287
aF-2.0230174501355549
aF-1.33301842657695
aF0.0031924414658795839
aF0.11658329867180045
aF-1.6814398641614716
aF-1.3335555061043829
aF0.37450771033926905
aF-1.30579667421889
aF-0.99792645874961217
aF0.00093771487938362362
aF0.0011884894843466806
aF1.5182845668606193
aF0.041092196223581658
aF0.31329025878987637
aF2.2871545058122891
aF17.804789438537515
aF21.657061994136846
aF-16.592074780252226
aF-2.3432011849338745
aF-0.21696929924625921
aF-0.33923277636657495
aF1.5074132999486944
aF-0.57432111513242479
aF1.0422625186282726
aF-0.015754899086300941
aF-1.4259121432646213
aF-2.0436943994179915
aF1.108496815938498
aF1.0960170586883806
aF0.0040222516221690855
aF0.00051689869502209045
aF2.2074592262012236
aF-1.4309205204186217
aF-1.4668770990692188
aF0.76624211951772592
aF9.1271626117487425
aF4.9649019930741254
aF-3.0551651959060901
aF2.954540296584498
aF-0.37457138332661494
aF0.59948959471838403
aF3.5918197921063268
aF-2.4454440358760876
aF-0.28320409339588798
aF-0.53165819569713801
aF-0.90625166545544067
aF-0.24634468580286503
aF0.1341287471254384
aF2.1796715524465933
aF0.0059161449075792296
aF0.0024118846306594634
aF2.2747073001119515
aF0.3112408188992889
aF0.98102485028573005
aF-3.6701627654215052
aF5.2648083704646114
aF2.8804405882794337
aF5.9268857072497649
aF1.008315502364068
aF-0.1586361212170852
aF1.5230582320444588
aF0.13374080245249514
aF-2.241180915252313
aF-0.69430807494864111
aF-1.6388278898968167
aF-0.43796585372750513
aF-2.8712498626137553
aF2.2292007220744705
aF1.3149306748623735
aF0.0026321208740478011
aF0.0022443006134556321
aF0.00061036547538989496
aF0.0067239274000279806
aF0.0022107447369082316
aF0.0070656256386367041
aF0.003728305055685496
aF0.0042423194623409819
aF0.005817880298644388
aF0.0013253191103157591
aF0.0069440308322017792
aF0.0033391024008954683
aF0.0066028996340556775
aF0.00061335790314014928
aF0.0028136909111381248
aF0.0039121995335503444
aF0.0045450790279030285
aF0.0056167003794913945
aF0.0016230453924531421
aF0.0034395574177630071
aF0.0028628763020068916
aF11.338785065864387
aa(lp56
F0.0039443277955689944
aF0.0013170539345244679
aF0.0035968322567840605
aF0.00065920638709830921
aF0.0016446774506349562
aF0.0054923819966363734
aF0.0061933032118558912
aF0.0035381531682369548
aF0.0035346827178508455
aF0.00066882717315406843
aF0.0047908981452411473
aF0.00054807674001355888
aF0.003695073243349709
aF0.0038381291459407656
aF0.0040204304164153824
aF0.0033379214267265731
aF0.0020857648491576612
aF0.0012376389975705512
aF0.0049796239072931086
aF0.0054829247088720072
aF0.00051891072104945206
aF3.3418371000717468
aF-5.706018883452658
aF-0.84911440977159769
aF0.98960707545962523
aF-0.41576281123291986
aF2.1229286862913832
aF-1.5531178033995192
aF-1.6389331753781518
aF-2.4796316449046163
aF-6.0822512460150095
aF-3.3977720467883685
aF-0.72520048701360462
aF-6.0840849073036107
aF2.5184836889564415
aF1.7064735697020121
aF6.0940826613355341
aF6.0394040446762434
aF-9.91764002523119
aF0.002835588449932622
aF0.0030092939575053156
aF-0.082410296766628616
aF-0.95585826141744201
aF-2.1598618683429591
aF0.0085201215331992906
aF7.366753433564849
aF-4.9548903545710186
aF-0.82114685633119655
aF-0.063853945408409912
aF-1.5243809140580764
aF-2.2262360380965047
aF3.2217003053783637
aF0.0020854019281964548
aF0.0050639605880167865
aF-1.6470216246403186
aF4.2744200412379154
aF2.7430077695695507
aF2.1716985218595553
aF-1.3352549817520147
aF0.0067474242916264289
aF0.0013618740778106716
aF9.1273522429081275
aF7.9359116241151924
aF-2.5988864872049242
aF-6.7285473408668359
aF3.877824130468094
aF-0.068047749547383754
aF-4.4224427150380734
aF-2.4579681655655139
aF7.2783855793120802
aF0.47519169196400507
aF-1.0673599507497096
aF-4.2266755180055364
aF3.4463294868990477
aF-1.4382385900263164
aF-1.5674688190986359
aF-6.3558472017272027
aF10.123525116997889
aF0.99566078953620241
aF0.0010239861465667188
aF0.0069594576278614586
aF7.081545968882839
aF-6.5317261805440756
aF-4.7940894697354812
aF-0.96110094254317202
aF1.4254251570501211
aF4.0843271553541038
aF-0.23517282833800529
aF-1.7300977138866642
aF10.170279383711677
aF-1.7525774579365438
aF-3.2132420844414402
aF-0.2099450569042135
aF8.7495970717111433
aF-3.8870158306294318
aF-0.12447171925970989
aF-0.68164998278876954
aF0.089671196278195045
aF-2.8150821956976038
aF0.002310349351500453
aF0.00043471320348159435
aF5.1425310390212875
aF-7.4286188323389641
aF-1.9807000162041171
aF-4.7676192103249511
aF6.4616915108933481
aF-3.9562840518797691
aF-9.2032314045933834
aF-4.9888294758465701
aF12.461004995423364
aF-2.7581488954999704
aF-22.50520033922988
aF-4.0599996566232344
aF9.6905043292580935
aF-8.6226387828091671
aF-18.055077134336166
aF-3.0733515568520953
aF-10.244875809490921
aF-14.730052106076347
aF0.0011992073554070171
aF0.0060815523543859195
aF0.0063651632330527569
aF0.0020096741077664706
aF0.0035207009631500917
aF0.0030104057901164313
aF0.0066935191868774547
aF0.0035705460291156994
aF0.0052238254047799896
aF0.0041370084214540316
aF0.0013925829634029599
aF0.0058175381168745349
aF0.0022169728958762571
aF0.0037258936982923129
aF0.0047333293459506029
aF0.0046308275893400495
aF1.0208624740893585e-05
aF0.0016894494436498059
aF0.00093779170009612917
aF0.0025192478265780552
aF0.0052597246840913985
aF2.7363225527407415
aa(lp57
F0.00031167868112711838
aF0.0023476411279301714
aF0.0003484117754260996
aF0.0064318948465193048
aF0.0037354742378942025
aF0.0026837062036230075
aF0.0040018389473068412
aF0.0051339215240426301
aF0.0023114052556146426
aF0.00030927610367163517
aF0.0071054933048243854
aF0.006343329749593913
aF0.0050413861827458663
aF0.0047381857347350018
aF0.00022424470317156903
aF0.0015704633205661297
aF0.0014660405930098969
aF0.0055778982869348947
aF0.0059468703529401562
aF0.0029699010375357914
aF0.0025949573425023266
aF-0.72698658231406466
aF1.2795746910346444
aF-3.2029638815860331
aF-3.0198706825731914
aF0.43479554846877544
aF-1.9052425403834785
aF-1.6289041138899527
aF-0.71830629259967116
aF-0.39932862728167617
aF3.7769895601839636
aF-4.0995421530545109
aF-1.9075416904161584
aF2.3584589674584708
aF0.84605654500639316
aF-4.9295764246811782
aF-3.2240183227410713
aF11.116318087909628
aF-9.8821717377593714
aF0.00023882335325604734
aF0.0013417854509866814
aF2.4405011775672092
aF-0.88097765553016971
aF-3.2531204871934354
aF-0.0027672611425059172
aF1.5067585534944807
aF2.1295162077458509
aF0.13520827802001203
aF2.2345906533579001
aF-1.7288133066812477
aF4.0115306414959946
aF0.77138942455297999
aF0.0060132194220285347
aF0.009946797245975067
aF-2.5650978908806583
aF2.0406146359440207
aF-2.4820750931164333
aF-3.1862969106210572
aF-6.8991530541338104
aF0.0025843988592809935
aF0.004980058900222864
aF-4.9790526152998922
aF-2.2670296537731534
aF0.50813346809817683
aF-3.2091665754003924
aF9.37711722363413
aF-3.6786639608083473
aF-4.8839400562349127
aF-1.235034599290177
aF-6.3119550409555032
aF7.303973782450373
aF-0.24963205412330472
aF-0.27932817925447817
aF-5.7480358625894272
aF-4.5625060103454977
aF13.580587238446256
aF-7.5447804134713321
aF-3.3917875087780383
aF-2.2250976247904202
aF0.0027431744300277228
aF0.0058801641495719297
aF-1.4171856170181483
aF3.0807247672559654
aF-4.4115255779714087
aF0.091401155393010053
aF0.85153785999979004
aF-4.6502491914272381
aF2.5536138444111915
aF-1.3403791790085884
aF-5.3887999084153693
aF3.7496211870287808
aF-3.9059395289341574
aF-0.88578056966780805
aF0.32625268630741905
aF2.6740205691829373
aF0.42556630259743644
aF-1.1473587185402891
aF-4.1386754544388777
aF1.6547750353737487
aF0.0052061966664930801
aF0.0030684627073568854
aF-4.9906186915585238
aF-1.0269873825450442
aF3.2046042982832676
aF-2.0074556779082124
aF-3.5505090352767765
aF-1.7655934556731101
aF22.899788832855052
aF-11.049702810751876
aF-10.697045132842616
aF15.567684017942089
aF-3.5889527228247067
aF-2.6163791915323524
aF-2.7368254064034914
aF-1.6279331418200635
aF0.55635194324022763
aF-3.4005859762597304
aF5.0373628189374378
aF-3.9546692936698911
aF0.0042761371923555284
aF0.0062570738270670001
aF0.0024497039818175072
aF0.0059544764697855562
aF0.00055168668962331767
aF0.0041069648629344733
aF0.0043095965925647912
aF0.0028564229405208521
aF0.0044358052852702936
aF0.0039382902298868852
aF0.0012493505991865075
aF0.0020843526438208675
aF0.0015773982996536619
aF0.0061483293806768808
aF4.4471954248934531e-05
aF0.0050039588502552761
aF0.0035754389211341657
aF0.0040990083451105811
aF0.00093672775477138812
aF0.0029954181833343752
aF0.0062876692311577493
aF3.6067285729929681
aa(lp58
F0.0036039114946191408
aF0.0018785882124168524
aF0.0041575077724640749
aF0.0063880597403529332
aF0.00069295861451704351
aF0.0063349797522722177
aF0.0017435660173706108
aF0.0037048805493880327
aF0.0060032763120978971
aF0.0017819466779845892
aF0.0015118641098993389
aF0.0062402881223897538
aF0.0034129202600642864
aF0.0029598659606915618
aF0.0018424317086015685
aF0.00075189234172539797
aF0.0010525317046087058
aF0.0025856801040779801
aF0.0014959633787623027
aF0.0068803302151073456
aF0.0024685058272417445
aF1.24229474597475
aF-3.1861891426856483
aF0.88845746483233612
aF-2.7945692370412742
aF-0.79862852310524524
aF10.866535472871998
aF0.56981854015599576
aF-2.8247236422486721
aF-1.0900977089846726
aF2.052418596882196
aF-0.96282037028084155
aF-2.8902043719222497
aF-4.7952576604230286
aF-1.7197395184241457
aF-3.6191430830236562
aF2.7355432355323517
aF-3.2145883020618378
aF0.017141525299159289
aF0.0060604896666976672
aF0.0069955004509002034
aF0.25497164532538824
aF11.476732866685095
aF-2.7775575830855401
aF-3.6934399661420039
aF-4.3467230411611073
aF-2.8702729886451803
aF-0.87350493709252108
aF8.6966065666017975
aF0.45332967686668973
aF-0.80583961658513925
aF-4.7180309975614527
aF0.0014457625084496042
aF-3.6754464655695789
aF-1.1799919150121918
aF-2.6899834640218456
aF-1.0704239879273039
aF-1.9378846965185943
aF1.7870773338607093
aF0.0034262072577841956
aF0.0013791034377535491
aF-2.3188167631515584
aF7.3277753058510493
aF-1.2705084993211175
aF-15.010531663126004
aF-3.8967263973872037
aF-3.3229015286930674
aF-0.15521955768016363
aF3.9990604873117959
aF-3.4653969340477424
aF-5.7957973754484602
aF10.794391594338576
aF5.8855459815299742
aF0.37005058667759738
aF-8.7992642838443764
aF-4.7833798453184215
aF13.148181930342828
aF-9.1516623302777234
aF0.27398823700869901
aF0.00079443953458347035
aF0.0045212238290502854
aF-3.2402087905640324
aF1.669110455591315
aF0.26603917848348801
aF-1.9518992945727884
aF-0.5870555937058004
aF8.4321276461292474
aF-0.53089788689117878
aF-0.11456032613339096
aF-4.5212930916480607
aF-1.6880031434243086
aF-0.72107283898310104
aF-0.53350724472434896
aF-2.7482735405358274
aF-2.7004348857357674
aF0.13548580960264475
aF-0.90526836747432893
aF2.4154148613532631
aF-3.8194804707520817
aF0.0032656038386819561
aF0.0023525056296915758
aF-4.1385003829813209
aF-7.880737644688125
aF-6.97327262961318
aF-2.3105043747079694
aF-5.0849471033692835
aF-2.0842245757039231
aF1.7844722577400027
aF-3.5767138993003043
aF-5.1293553300983872
aF-4.1006516560914434
aF1.628262011155416
aF-6.6213688579011327
aF1.9006645130670654
aF-0.3379636020422796
aF6.0674941907721198
aF-6.0308437459186104
aF0.68664918817385201
aF-5.5123621799229436
aF0.0024573544136405009
aF0.00032626332127577072
aF0.0017744976347882889
aF0.004862755716667385
aF0.00029844623802705901
aF0.0047774736485385032
aF0.0051122162978212123
aF0.0027631800773020021
aF0.0036167651377132641
aF0.0029830579759475028
aF0.0042713750694425992
aF0.0025297700084278849
aF0.0015699246237119253
aF0.0060578111156695293
aF0.0067909061171343961
aF0.0056614117054668775
aF0.0046462626551465429
aF0.003522205629142306
aF0.0048434742693482889
aF0.0062832610505168338
aF2.0796131728442348e-05
aF-2.757493931655199
aa(lp59
F0.00066739359464334993
aF0.0066903887567955232
aF0.0065675106304520997
aF0.006765813103179725
aF0.0050154461246320579
aF0.005501877012554929
aF0.00062116553454997538
aF0.0029909923252904955
aF0.0011711516526706092
aF0.0023966063573266408
aF0.006659777012813283
aF0.0071071686941820891
aF0.0069988558457995415
aF0.0022465942981249138
aF0.0020555762375487224
aF0.00079038010178525007
aF0.0019531384916914142
aF0.0062416321795390672
aF0.0032368119619429307
aF0.0025209110260704993
aF0.0035415145791754025
aF2.7767011219055648
aF10.843183643932317
aF0.3391194311740493
aF0.066053032018092386
aF1.7791405196739725
aF0.35009224192595118
aF5.5782083942079517
aF-0.74910005688324266
aF0.64758303903388592
aF-0.85343005251184378
aF-4.5674678704605496
aF-12.418374766363399
aF11.133210387408695
aF-0.086552087674198197
aF8.4630282202676828
aF-8.3644528813160388
aF-3.4119469076630096
aF1.0533219407377803
aF0.0045606200270421017
aF0.0037056972335070175
aF2.1289831663479002
aF4.6655454982261917
aF-2.4821900357443445
aF-0.670025533849817
aF0.34740634600080533
aF9.2152404095688194
aF-0.66969734095365097
aF-0.15096947804113225
aF0.51783405026806972
aF3.1038908321314551
aF-0.45640446161702009
aF2.2737471752256758e-05
aF-0.30575650597075377
aF2.1090781996276484
aF2.5315743865782485
aF-4.8880608216983363
aF2.8579916312096945
aF-3.9641266836250817
aF0.0067723049421788868
aF0.0054601163338848747
aF0.36587903173064784
aF16.181035525719402
aF-0.77401979198535764
aF-1.1818810197066789
aF-10.919878893820698
aF9.5908553618840084
aF-10.5828748316613
aF-4.2762567219796539
aF-0.82507944050132376
aF4.179204825361416
aF-2.9984294579858068
aF-3.9060780651968101
aF-1.2606879425220121
aF12.388141400423683
aF-3.0326005427493339
aF-2.7497561234841301
aF-1.0306272354169259
aF-1.7608318475704725
aF0.0041922770719318853
aF0.0042787476206854851
aF-0.46009269071172793
aF-4.9229265013185968
aF7.4936415647284029
aF-1.0066691529053367
aF-7.2829172510866025
aF3.5541118223032608
aF2.0570880631333357
aF-1.9009352201616474
aF0.96552791791961634
aF1.7089811181142391
aF-0.62890730299489661
aF-0.77112809025395412
aF0.19870954043678005
aF-4.0480796961198324
aF5.147549057923289
aF-2.6377900909137528
aF-4.4918808095690155
aF3.9148171319660507
aF0.001110946683978573
aF0.0051035892930959221
aF-9.8437077010322334
aF-12.35507055806487
aF15.733269269848362
aF-12.802717297517672
aF-19.414239661972879
aF-8.4036006517769177
aF-0.96860055350310736
aF-0.056841858384710557
aF-12.780657655714499
aF-5.1460110672698081
aF22.375434747916977
aF-4.5401199733891273
aF-8.2852079788212176
aF-3.9699057629404502
aF11.95913402690144
aF-2.2526261264273044
aF-4.5287089276344137
aF-10.606712092102081
aF0.0064180465512824348
aF0.00080531683174029365
aF0.0025301369490343902
aF0.0017018145589429632
aF0.0015951174774665351
aF0.00055951890307419328
aF0.0053452479618022984
aF0.00043391265880640445
aF0.00095039943633813163
aF0.0030551151692467067
aF0.0032118646139648629
aF0.0070937864282631978
aF0.0037905985654567423
aF0.0019932435715438713
aF0.0017917789881070519
aF0.0069084733339254941
aF0.004701144383143274
aF0.00016078230918429543
aF0.0058698148787735931
aF0.0065579407572907466
aF0.00058551266283946891
aF3.937763705102268
aa(lp60
F0.0011074913836086173
aF0.0049704246123693481
aF0.0024568946501933538
aF0.0025765548452035382
aF0.0041377499136482938
aF0.0034731647947692876
aF0.0065315573432169968
aF0.0068561824893392477
aF0.0027327379453232579
aF0.0055982949861753438
aF0.0024952316898235803
aF0.00021190159118906205
aF0.0011714779515879467
aF0.00065059043463649914
aF0.0012809318198931806
aF0.0051992758159966537
aF0.00022261655696831283
aF0.0044416384564036123
aF0.0030956767630707181
aF0.0058594305412423778
aF0.0027211439272158658
aF-1.2177669663158475
aF-5.2983827376930392
aF1.148150768930793
aF-0.47266994643966503
aF2.8665271424956735
aF-2.1320030955634324
aF-3.8971273173678491
aF0.51061892350735616
aF-0.16283665957263327
aF4.5880982754925688
aF-8.0235616216885184
aF-0.85685952701732382
aF2.9517465532872311
aF1.4364643231302203
aF2.3409971370512532
aF-0.018379465958583693
aF-1.0006515426842255
aF-2.3671284234186922
aF0.0062000934188315452
aF0.0031236126405441394
aF2.2443017055689078
aF0.85791646645320441
aF1.4769963415147234
aF-0.6938115426682121
aF-0.12280489655143723
aF-6.2102929129983684
aF-0.57187807670647295
aF-2.3707046308058839
aF-4.0369033885931556
aF-0.47671235062485373
aF-3.2569112709817123
aF0.0050675553165689721
aF-0.67883084665116944
aF-0.031759701523563784
aF-7.6285098709618042
aF-3.0970584984949401
aF8.4088564344222014
aF-4.6469463040199059
aF0.0023173208072277945
aF0.00066080486893798404
aF0.98128306952516364
aF-3.5059547822117825
aF26.792577572218722
aF-3.2534441674164878
aF-3.2472500196032423
aF-3.9550482094503741
aF-1.4853356342942747
aF5.8425890722283436
aF-5.8202087240930576
aF14.169976899937634
aF-8.2625173972839185
aF0.65353334318367673
aF0.7382834790755215
aF9.8655105261673235
aF6.750320304873898
aF-1.7417796282255502
aF-3.7757567524263975
aF-7.6479177336946655
aF0.0015880656111719824
aF0.002165986858017388
aF2.4957463219273857
aF-5.553515932160936
aF1.3597704017068042
aF-0.69486335888001749
aF0.57689126035530758
aF6.549484521319509
aF4.0655663465502814
aF2.0109857993920266
aF-6.2264105403640011
aF3.151144712623291
aF-0.45776948693256919
aF-1.4056612092420289
aF6.3914974317358597
aF14.577923633073524
aF-0.73797708284292762
aF-1.8276338757387149
aF0.70185826814827901
aF-5.2944300026587445
aF0.0024884122997064426
aF0.0012276361391899099
aF6.4626280406217509
aF1.6515527960288958
aF0.98820650752386718
aF3.7397932838773573
aF2.2528312772936738
aF-3.6019250959069282
aF1.8663703712293103
aF2.886040152252352
aF1.6180014737841708
aF-1.4730266196613051
aF2.3722007327972712
aF-1.8234349780333869
aF-1.4834354806996441
aF4.5652283837537091
aF4.6179284722616094
aF1.4097478613870913
aF2.764488910402688
aF-2.42723091185269
aF0.005122729352773245
aF0.0042180144143057121
aF0.0023733522233883846
aF0.0043844157484430671
aF0.005183750929275607
aF0.0071391246727905682
aF0.0043647061932289887
aF0.002730247761014863
aF0.0054402490606774764
aF0.0044134729610345712
aF0.0053157441112434613
aF0.0065810729095343292
aF0.0054963453435509938
aF0.0037508794699276926
aF0.0028528379349220105
aF0.00082461569860345916
aF0.0036577680462709719
aF0.00068485672558436751
aF0.0056721093113624027
aF0.00091446693397891825
aF9.8603591804112352e-05
aF15.66633507483334
aa(lp61
F0.0063908050039086306
aF0.00078937033944813503
aF0.0028633539371413956
aF0.0026062614777198115
aF0.0025270607115642544
aF0.00539111162142879
aF0.0059477765965418976
aF0.0036814848862278243
aF0.0065224465156132521
aF0.0011914860132637903
aF3.4842384744259478e-05
aF0.0027653320779712927
aF0.0066483204017011533
aF0.0015055291536180046
aF0.0014034750194499774
aF0.005906354212762195
aF0.0016952928822415185
aF0.0056475998684345314
aF0.0063089313331246523
aF0.0033517579229888684
aF0.00035499018275439285
aF2.6837058439542099
aF8.3597378656307733
aF-17.31278277732223
aF3.5789696307982748
aF-6.1829998395165964
aF-10.609542717006022
aF3.6753701432878021
aF0.36533474072565558
aF-2.8426873897349778
aF2.7573667416533687
aF-11.901627759496002
aF4.3051159787337845
aF9.1322439993824052
aF-1.6348404632266325
aF-5.2194248941502881
aF-9.6900337806837413
aF-4.0793914516358667
aF-8.0463436058021447
aF0.0024411783776497409
aF0.0038797079959274443
aF-0.17471308593564719
aF-7.4856661553649255
aF-8.5201370908367533
aF-0.54991451362939436
aF-15.393962551066338
aF-4.1825491566868891
aF-0.00014993004816017701
aF-0.84316334650712998
aF-6.2957664946495857
aF-7.3496139902124389
aF-8.4649488242832316
aF0.0037471867804360387
aF-0.54528099837107813
aF-7.9640405943292798
aF-7.8233249573239023
aF-8.7164827872323745
aF-4.6268358461499348
aF-9.0199346490867889
aF0.0026053222445478791
aF0.0023788626359589654
aF-4.2081562202483074
aF0.24738449059425124
aF-2.8326317697692613
aF-10.525918986810634
aF0.27687906607914109
aF-1.8135006306395196
aF2.3406159605392851
aF-10.184077863205392
aF-6.9351958654189012
aF3.3385175843377781
aF-2.671047115933133
aF-8.8659270632166773
aF-3.9413184249734177
aF6.3645654154794524
aF0.41846211631001351
aF-12.084754669926506
aF5.1703928296875645
aF0.055201190956730962
aF0.0034145093595233864
aF0.0025708080637047237
aF-1.2405743404772653
aF1.9287038760685127
aF-12.029780508535442
aF0.0010356215818955329
aF-1.252692450984968
aF0.88685365378871184
aF-2.8564481045731118
aF-2.3545525161389458
aF-3.8358440287815219
aF-6.8078045044356381
aF-9.8046924507695046
aF-3.1682864878497008
aF-1.0008415217358624
aF-3.0669893762222054
aF-1.0252648022777262
aF-0.80532277874842439
aF-4.582983411327179
aF2.9403736775732372
aF0.00017553158617452974
aF0.005737885485232584
aF1.4551107073011502
aF-1.5040544004957583
aF14.360669948421219
aF-10.854046786395649
aF9.9627278072117935
aF1.9441095030180893
aF21.978053151124222
aF-9.8186551987219932
aF-1.1027441101003157
aF8.277918381018992
aF11.126275244506749
aF-11.247419307423797
aF-4.9083237819409113
aF12.125688246970997
aF8.2008538239882753
aF-11.252825302614516
aF13.134120197958232
aF4.6855381771111304
aF0.0054641501114927249
aF0.0067989167242063445
aF0.00010137914656350009
aF0.00068262531693173505
aF0.0031633967427835861
aF0.0060845007067861388
aF0.0013518307091859732
aF0.0012186460941784106
aF0.0012017384561368899
aF0.0025078329303221134
aF0.0013429561312016684
aF0.0055981617543873373
aF0.002586536920124408
aF0.0054119641493148088
aF0.0038680911649082612
aF0.0044361923973845058
aF0.00443614779336419
aF0.0009047553025879158
aF0.0038969559252600866
aF0.0052342203578800645
aF0.0011658411720243528
aF0.84132732689924916
aa(lp62
F0.0043551382987896273
aF0.00056418542597709207
aF0.0048529770307592776
aF0.0021887581938238223
aF0.0048285194845222269
aF0.0049131538445580623
aF0.0035877367954578339
aF0.0019117669683501933
aF0.0034605056355907415
aF0.0013621854756158465
aF0.001306603026472447
aF0.0057290773522104717
aF0.0024163066770917984
aF0.0045271450407261592
aF0.0010619845142639782
aF0.004131111897029696
aF0.002156553113064852
aF0.0043728178772477443
aF0.0010234855912245092
aF0.0014482907246194229
aF0.0023827182379238167
aF-17.572212099783496
aF-9.1023647451658434
aF4.0987939744038941
aF2.1864964773035367
aF6.2074528092046268
aF11.452101972513693
aF26.333253791153972
aF8.499300701116864
aF25.31549292588042
aF-9.742613127119327
aF-1.7292245635192118
aF-13.063690261756308
aF-19.502221077000243
aF1.5374645688928688
aF7.0991938546658142
aF-3.7509013448886974
aF4.8466476928549884
aF18.64787247739881
aF0.0023519202715906662
aF0.0053239202763921073
aF-5.8387004086248346
aF-6.5756299180701516
aF2.5770933774775773
aF-3.2836867966575083
aF-10.369832074367585
aF5.3306126540223504
aF7.6851742572469899
aF-4.653236715207993
aF-7.6679689254983208
aF4.4517345405291522
aF-0.25824826069677576
aF0.0021673389430490004
aF-5.0031957937909741
aF-8.6012874494399298
aF-0.42143736965496154
aF-4.5244188995383254
aF7.3150643067884991
aF17.096771584584115
aF0.0018330109238668599
aF0.002958016307445366
aF-9.9084863189041332
aF-3.852682865571269
aF6.1539118934490773
aF-3.7877899876671783
aF13.038794293934082
aF-10.521621167617784
aF-5.7998277252598101
aF-0.89441458000048601
aF5.0053086722947713
aF6.4795667798428029
aF20.704063244630429
aF-3.0995365390360807
aF3.0130986220147253
aF4.1333819952930675
aF4.005151893138831
aF14.332844551156301
aF6.3956597044259302
aF17.19584451839814
aF0.0067540278822148638
aF0.0011890432000084517
aF-5.6030622614858867
aF-4.1837708335697874
aF-1.3399855992614478
aF-0.89162709147577779
aF1.96648324314795
aF-14.323332639941116
aF-4.7216807244313497
aF-2.5110067678635546
aF-4.9276247808763305
aF-2.7147916208653884
aF-0.97945949088308615
aF-11.844251563410898
aF-12.526859362507842
aF-1.7126944474608754
aF-0.23518349182669498
aF1.2581147757204476
aF-6.0923633281563223
aF-9.3130872140017633
aF0.00042118385410812271
aF0.002162080259564614
aF-24.778514362798688
aF-9.1088319151332815
aF-0.83883671763624279
aF-4.0068216750295083
aF-0.79269580825475749
aF-2.0345872600272088
aF2.7450535177283015
aF-2.6097717857783085
aF0.59712514720496146
aF0.76541885562475542
aF-0.78051576901842257
aF-2.8070382524252069
aF-2.1835047471685143
aF2.4924748363475766
aF-2.4769345138724765
aF-5.5561498110746088
aF-2.2934000922821633
aF21.17360624033445
aF0.0056917752055901001
aF0.00035887281541053091
aF0.0010139093049936622
aF0.0015174493857771911
aF0.0039646336762350068
aF0.0070641833210227821
aF0.0050540076627982313
aF0.00079762387216454188
aF0.0017890913172226765
aF0.0068837432903531143
aF0.0058666692454010586
aF0.0011107204855680722
aF0.0001181220467185535
aF0.0063193742286636063
aF0.0058325399737848907
aF0.002712521338106027
aF0.00075048400342134149
aF0.0022093010041743847
aF0.001824945429074059
aF0.0045413989696267082
aF0.001333244939642732
aF14.198140764306988
aa(lp63
F0.0014896421641506096
aF0.00013408610700676687
aF0.002830802646818331
aF0.0059387630460960485
aF0.0066314871418619329
aF0.0047562686879737068
aF0.0066614997117194858
aF0.0029338388677306853
aF0.0070757726343048093
aF0.0014727818408171
aF0.0025184477510219825
aF0.0063451948339189133
aF0.0041944221019590564
aF0.0058156709428818631
aF0.005270275637165164
aF0.0052106153633566165
aF0.0023885688356034157
aF0.00037318311830964774
aF0.002397110044638081
aF0.00025278536793919165
aF0.0067845594007629869
aF6.4381821602907152
aF3.1184206487680344
aF-2.5529565579971161
aF-2.4756358380696262
aF-2.488065150472675
aF0.67422727325712906
aF1.1008604315846198
aF-2.4498860449797202
aF4.0526990566538208
aF9.8708683502042955
aF-5.3479526327544615
aF-1.0327055047028382
aF2.0300768413044032
aF-0.29680096203634904
aF-0.19041391938867164
aF9.7373362835315689
aF-6.2973015487582709
aF-14.104769764239853
aF0.0018351958000160039
aF0.00082202032767363933
aF-2.0718851786384662
aF2.8243778021283683
aF-5.7849078280878086
aF-2.5398790662204753
aF-3.7736892414954708
aF0.015243424531093114
aF-0.43862966813950061
aF-5.974364401526616
aF5.5842826801436276
aF0.54120750591333922
aF-2.4402062550127233
aF0.0027235592325833636
aF-7.3588225781311589
aF-4.7363254818591303
aF-2.0689734061038769
aF10.311370870693096
aF-4.7329377027240387
aF-6.3881269599017205
aF0.00082437088849544274
aF0.0058775838386914258
aF15.757938519523401
aF-5.9896477515042843
aF-0.8243082342835284
aF-4.8254229383999334
aF-7.3686489979225485
aF1.6517643838178184
aF0.57864991844809299
aF-7.2996860971417323
aF-0.61622480003353342
aF-7.0418533645726153
aF-1.4836997844345385
aF-5.9526487446243994
aF-1.5507250523524598
aF-5.8307931506060733
aF6.5018122876972413
aF-6.7411090404435212
aF-8.7893790239560108
aF-3.8818737539582808
aF0.0024229488283963683
aF0.00049404658571406725
aF-5.7051521460236918
aF-3.0752047749449338
aF4.3479853396000552
aF-0.082327998404200214
aF-0.69305324979431693
aF6.437140253900604
aF-3.1356380800833268
aF1.0009849128818886
aF0.37631565686178925
aF4.1470947841229782
aF5.1774907207719298
aF0.33196255155332738
aF-3.3396356614757572
aF-1.2197135827892287
aF-0.43860946824061975
aF1.7958634098236785
aF4.5371692574035869
aF-5.1747221135764176
aF7.7154406653125372e-05
aF0.0067376986283638638
aF16.386872490503215
aF0.47301725067515965
aF-2.1437985143857827
aF4.6998854182204219
aF0.31829449763100509
aF-5.0247405928280964
aF2.5698601539519692
aF3.5446745639964035
aF1.6058429949218571
aF-2.0048975507461906
aF5.9542969903357488
aF0.95782408851087097
aF4.8151934063621669
aF3.4041096261908357
aF3.7296423502035378
aF3.2497555308542898
aF-2.4143339764276952
aF-4.7024377331087539
aF0.00020571793571068405
aF0.0065803179923136067
aF0.0029066786996064979
aF0.0017457743839372208
aF0.0024660863630861212
aF0.00040226058656391678
aF0.0017422480486270582
aF0.0042520882120881389
aF0.0068932169368995872
aF0.0064595081940136646
aF0.00048001988509687496
aF0.0062521156495094011
aF0.0021250090970084791
aF0.0020155127262959697
aF0.0051628101199443326
aF0.0065247957518249095
aF0.0048225999419383341
aF0.0026962491036128617
aF0.00057696731183312004
aF0.0029510101015674242
aF0.0068660640529526187
aF2.3970326995160098
aa(lp64
F0.00093644251567737938
aF0.00027757178214891812
aF0.0015943536956814941
aF0.0040791580407236287
aF0.0036881732268063596
aF0.0061448043852977497
aF0.0021582780586376937
aF0.0059465505780680761
aF0.0012271632256591225
aF0.0011977569299992338
aF0.0042553020503894043
aF0.0065805502293204308
aF0.00054074138118326287
aF0.0067879928332504908
aF0.0020142250370374149
aF0.0063328900400578363
aF0.006544498611541545
aF0.00094826696683297394
aF0.0031993137168125456
aF0.0016918290786194271
aF0.0045853393710115252
aF4.0376051146035365
aF0.87634496554102981
aF2.3559042702986144
aF2.3590864607993853
aF2.3114117014144604
aF0.41128447622816383
aF3.0615437259048326
aF1.8984536055992289
aF0.95309692126999845
aF3.3764083951106412
aF0.50615829815396185
aF3.5392793350909759
aF1.563831360185175
aF1.9501272712731226
aF2.476463431185925
aF1.8734215237229714
aF2.5352710217986902
aF2.2468886073204004
aF0.0040497789584305255
aF0.0010996160426307291
aF2.2476603693040111
aF1.1117118472372287
aF1.1200995561261542
aF2.020643298274317
aF2.8984921362213467
aF3.4669699427393135
aF0.65544719281317454
aF2.4322585492063959
aF3.8582683257640147
aF2.5184729615302706
aF1.6300043508687163
aF0.0028881201918988693
aF4.8841297533817789
aF2.6742850518199766
aF0.98694899801696723
aF3.8711470699857213
aF1.671130867854872
aF2.2377809812538145
aF0.0011646238284625052
aF0.0049998748731303385
aF1.2174693929391123
aF6.5654649241290368
aF3.0709659269500107
aF1.6966502899998332
aF6.822386107652556
aF1.5697866343713818
aF5.8795763437639179
aF2.4906010797278468
aF7.4439782548007578
aF9.3388345734798275
aF9.7320760273842044
aF6.5954092560193196
aF2.4831327459526724
aF0.59578748969081974
aF3.9624835129323044
aF2.7193367470818339
aF2.4648066158649002
aF1.8167110490676541
aF0.0013573594902145897
aF0.0050797991786852561
aF1.9363469685844596
aF3.2198792868754271
aF3.8525646028577061
aF3.7018991427952899
aF2.2607327677889759
aF2.0902005049367176
aF0.56369093997607234
aF1.7120053067243586
aF1.3694683543155366
aF1.7420687141021927
aF2.5298321877141157
aF4.2019494110684557
aF1.5869213762450076
aF1.0948737722704374
aF1.2929157710156762
aF3.5894519297861582
aF2.9320929427806837
aF3.4767482599063189
aF0.0037725808356025309
aF0.0022937188255133492
aF2.4656660822472167
aF4.5440027612793319
aF3.1245286075131933
aF3.410189478814639
aF2.2857532002953995
aF3.3462219223571554
aF3.7598453235347682
aF3.629511673488754
aF3.2998904550385997
aF4.4658059260741201
aF3.4463438750932212
aF2.4304320160945463
aF2.5980212351090288
aF5.5612522855363382
aF2.6234535638771077
aF2.9921774433263275
aF3.1501432363449737
aF4.0944033045338175
aF0.0011521080970311856
aF0.0039892226343959244
aF0.0064023222870967815
aF0.0014895058133465239
aF0.00098420461700056308
aF0.0021253201976133935
aF0.0050163585621707633
aF0.0037697136887165101
aF0.0018268953097731204
aF0.0031029652588828718
aF0.0032797893882347473
aF0.002203804852677552
aF0.00089731641471817918
aF0.0053633359851970389
aF0.0037087261684636253
aF0.0040442049101825552
aF0.0067296646763140757
aF0.0064331622613456952
aF0.0041277733353747492
aF0.0049254687884256595
aF0.0023525488315976782
aF38.041086362353568
aa(lp65
F0.0069731206183842364
aF0.0046384881988000394
aF0.0013528152243635215
aF0.0044371573418076973
aF0.0059849073468926902
aF0.0016282825454906509
aF0.0012191936563334092
aF0.0068715172869111664
aF0.0052338634641594817
aF0.0012886525530023277
aF0.0052204028345586703
aF0.0022011029597410452
aF0.00021502409867146639
aF0.003825807250818841
aF0.0044428490566076626
aF0.0014311416195011346
aF0.0061799169356527026
aF0.003905291883338935
aF0.0020675344400782726
aF0.0031406268309258517
aF0.0019466549349202635
aF1.7529225758419478
aF-11.312983325714283
aF-12.09693213230633
aF14.385708217398445
aF17.879155542697596
aF-2.9193765690232922
aF1.3365012621604153
aF3.5466943727817224
aF-4.078166698193149
aF3.1554724249396298
aF-18.110730565838022
aF19.612736361479019
aF28.206636826953584
aF3.9876843161221038
aF23.116435761531246
aF-1.6405547504940983
aF2.0826047402225147
aF7.119689312347794
aF0.0049917678839926476
aF0.0034170473677442208
aF-0.081357097477123289
aF-5.760855562282277
aF0.18618649609537097
aF0.055790257507284946
aF-10.011578001185804
aF9.1602380753050046
aF-4.662755607957946
aF-1.2548030910840029
aF2.1486681249540394
aF-4.8933810839036065
aF-1.4930921327970084
aF0.00052098316171995203
aF0.097694514038334929
aF2.565480410257813
aF-12.690839153488721
aF-0.57021217176148886
aF18.157929251364177
aF-1.8557520268689414
aF0.0024111516768071362
aF0.00039212514855711139
aF-3.3279302736391223
aF-3.7839802075897353
aF6.3970080588310587
aF3.0565120724282404
aF0.76260060445248312
aF-3.7430445363474503
aF20.306259586407247
aF-4.8233154162909742
aF-7.9908581737352327
aF9.4064572252965952
aF7.7371194159192038
aF-2.7901590556744416
aF-3.1074511479430207
aF-6.4047653127606434
aF0.29804446757963243
aF-10.466245406193075
aF4.7760519903042145
aF18.869514838210126
aF0.0051926853591699705
aF0.0027163021492203764
aF2.4826751845670119
aF-7.6083241505133561
aF-1.8164948466464095
aF-5.4115208806611372
aF-2.614415535232077
aF-7.1238414737108302
aF-2.6754587596921442
aF-2.6686164288425851
aF-12.207826096171944
aF-1.7540841242273666
aF17.445719373036443
aF-1.8259769954785872
aF1.8771638738386767
aF-7.9695514035924093
aF-0.6998398297082431
aF-6.021917612203179
aF-3.0811834486695289
aF3.5016889613450353
aF0.0070055022397953522
aF0.0012621667959931129
aF-7.1453911531999621
aF-7.633554294420521
aF8.0970030716992607
aF7.3557142936966819
aF-5.9969969984475844
aF-5.0471240125684327
aF14.75017555391576
aF-1.3289031274562126
aF-4.6396107564425693
aF-5.6207571755302519
aF1.4236041715645007
aF-6.1594082787220303
aF-5.0414655620488684
aF15.191105635011038
aF18.091355284230424
aF-1.5203028921381103
aF5.2657075880887643
aF0.16888422392993258
aF0.0023351638167961298
aF0.0056444861741417321
aF0.0023495593865706941
aF0.0047168107871475243
aF0.0067509159770351886
aF0.0049446588180131496
aF0.0055384695533619013
aF0.0034703081497797841
aF0.005559556637041903
aF0.0065291654418620677
aF0.0020077579365348507
aF0.00059592065259913326
aF0.0057126496338877047
aF0.0019554391498140746
aF0.0061422643452708108
aF0.004489219128288066
aF0.0038755646429032113
aF0.0056345757225709529
aF0.0045607776199910084
aF0.0041355603277110405
aF0.0027082133425333833
aF28.884549149414312
aa(lp66
F0.0055273537823415705
aF0.0011487505666076267
aF0.0012067432034788153
aF0.0052373307635003126
aF0.0033298977765823675
aF0.0020147959644606756
aF5.4067257461653291e-05
aF0.0043138386300628729
aF0.0056487295767596712
aF0.0043767542486456996
aF0.0029792317488518444
aF0.0068358757161990609
aF0.0058997001875013035
aF0.0016130544682952195
aF0.0056531015304643623
aF0.0047583926173260724
aF0.0018413277115835141
aF0.002571853281100048
aF0.0041753689325074866
aF0.0043949799858150895
aF0.0028531139745333264
aF-5.2208786153040476
aF-0.045969693728185046
aF-3.2489004645294415
aF-4.3742998433092621
aF2.5183123996192518
aF-1.9404664307419737
aF-2.5676748309725621
aF-4.7772517990921441
aF-2.8479769592743507
aF-1.5338019185583449
aF-3.9109973964132316
aF-0.17662266047080735
aF-4.9388099751807779
aF14.935466109096508
aF-9.6851086270289226
aF-3.2066632451071593
aF-2.00156706351386
aF-1.4957724323398986
aF3.4591143968896017e-05
aF0.0038326615906384676
aF5.2621496900275844
aF10.287561472832101
aF-0.31278151513202734
aF-1.1061486037176582
aF0.066843603330242765
aF-2.7372388412933235
aF-0.42415280255249649
aF-4.4191971086176736
aF1.3850499604255433
aF-1.1587636311557807
aF-4.3691558364626335
aF0.0045697743678775127
aF-1.3079934255995334
aF-1.7291893178212407
aF-2.644030487502806
aF-1.4607284597220298
aF1.6594789362673641
aF-3.3027844222615337
aF0.0036516585192548317
aF0.0068553671670822276
aF2.2856200262258852
aF-1.8226225464700549
aF-1.9162269800219505
aF-5.927597919511661
aF-1.232709941135038
aF2.2459285759209866
aF3.4886138810712213
aF-5.774544354578854
aF-3.1949683062314582
aF-4.3881311966321839
aF-4.1998668823669183
aF-2.1006953027500681
aF-0.28510481176913038
aF-0.66357158625356683
aF-1.3231597014277197
aF-0.32589235852997772
aF-3.8413434269171636
aF-7.6629500900823775
aF0.00086522349607889056
aF0.00093297514477440292
aF-3.2923252943511332
aF-5.6437229755654661
aF1.1878847168478461
aF-0.11478065107914405
aF1.8415086781481425
aF2.0715634224126394
aF5.5859046754717108
aF0.65885097974883089
aF-3.4012102949094767
aF-0.61800365379690758
aF0.13879539981496497
aF-2.4070475403936635
aF-1.0131160781472761
aF0.15440972935136948
aF2.80150823328822
aF0.40465192227116858
aF-0.028482255785990573
aF-8.5124915726923369
aF0.0020050351704963255
aF0.0046158813024172645
aF7.0675331737156908
aF0.31588361976753526
aF-1.6152183324862843
aF4.5897240374592547
aF1.3121655937202705
aF1.7173222883809236
aF8.6289281302391885
aF2.9207854756474783
aF-1.1706742792739577
aF2.1960659909442435
aF2.3373711985978356
aF-2.6033022186270376
aF-3.1930798104923412
aF-3.0582363603458043
aF-0.82312997765943841
aF-1.9199810599246458
aF-3.8608030251796488
aF-2.7579998908158871
aF0.0026877403818025701
aF0.002309637762965474
aF0.002131553185007466
aF0.0050010509721998336
aF0.003340820118280467
aF0.0052909766197348669
aF0.00051096568720752791
aF0.0030265957509240183
aF0.0024920365448570783
aF0.00042250149331761108
aF0.0017300969353407937
aF0.00489895447699244
aF0.0038616042086419065
aF0.0002041752852188185
aF0.0016012127078486752
aF0.0042618779570602937
aF0.0067133766945532579
aF0.0020378400805857425
aF0.0045755055475395689
aF0.00078607356913498977
aF0.0057962511720184599
aF-4.1368725942118747
aa(lp67
F0.00082167621727962813
aF0.0046467588220074465
aF0.0024632014846070979
aF0.0068592275517538395
aF0.0060427268448865947
aF0.0055572733366435322
aF0.0063280293335186482
aF0.0030241057367594889
aF0.0021924880564349182
aF0.0046959713301913536
aF0.0020296528698354886
aF0.0065128295609139719
aF0.0022344789290214806
aF0.00051201133451590026
aF0.0027791520766945917
aF0.0068574893984681608
aF0.0037132051381508838
aF0.0055130886306338752
aF0.0040798232067808917
aF0.0038982240330936607
aF0.0019015453367363109
aF-13.786826082077001
aF-11.132372731845109
aF-6.2046891480687716
aF1.735325550249502
aF0.35937759812902104
aF-2.0199995006354881
aF-2.2874772647924257
aF6.2874930371032383
aF7.858479790612483
aF18.712566903405005
aF-2.2326442386068481
aF0.35336354164904538
aF2.7776285683701021
aF-4.9142841196891887
aF-5.5835582932414729
aF-3.4350921496515268
aF3.0970273413919731
aF5.3396782142758754
aF0.0005212942785305961
aF0.0050022444842648386
aF-0.21309940151415821
aF-5.848102348189923
aF-5.9803561087921517
aF0.0055933377038121946
aF4.6777399101720762
aF4.8489469727074237
aF-0.00085362022935761355
aF-0.30278582156988149
aF-3.1481238950696797
aF-6.1456599060167409
aF-0.08031888430225495
aF0.003643951795172067
aF0.0094225751356842181
aF-2.8552104011695199
aF-1.2330734074056469
aF1.3458380586108134
aF-1.2526157322880338
aF-3.7165512618434211
aF0.004641618554567393
aF0.0031752643217755915
aF-7.3541242321493607
aF-18.312869941433895
aF-8.9191268008836033
aF-9.3148912294228143
aF-3.1618800663215505
aF-2.9412550599665841
aF21.190984280860828
aF-8.6846197003838626
aF-9.4318683773023224
aF8.3004568942966408
aF5.4279651045460433
aF-5.1353136310522149
aF-5.5002032352662704
aF1.1433846301149051
aF4.016662202238841
aF-6.5147386940512559
aF-0.30425950173533917
aF0.11330984930658258
aF0.0015198416607367451
aF0.0066391505177385499
aF-4.7620528135183333
aF1.9594982582165898
aF-9.2982348200898919
aF0.0009405759875789363
aF-2.5441175065986172
aF-2.1303854244858988
aF-2.4106275258288785
aF-2.7422827744523297
aF-2.5928789650050841
aF-3.4369387620984031
aF-6.656147207753544
aF-2.3363319822352899
aF-1.5807838500697622
aF-1.9163599400519788
aF-0.30096551258432341
aF-0.099651515181517811
aF-1.8507799715195521
aF4.9749811062705245
aF0.0046797051862718557
aF0.005927353901948226
aF1.738202433393998
aF-0.832930222224469
aF25.028088512065832
aF-7.4249823285541616
aF-6.570435077603527
aF-1.8802435495707901
aF14.222462060841364
aF-5.4045673452785215
aF-1.8891062922310837
aF0.089163780480932764
aF7.9258497729011967
aF-6.4884260576620703
aF-2.8379438977579117
aF1.6847066710152068
aF3.899700600609886
aF-5.8602411272128965
aF2.0425450278661375
aF2.56395917868995
aF0.0046031278841267035
aF0.00064018878206247693
aF0.0013379057722398581
aF0.0061875801740445087
aF0.0015480751372032539
aF0.00080719219735297942
aF0.0028096212306530817
aF0.0026006026477993702
aF0.0060843099248407357
aF0.0025710599029819519
aF0.0040124345788712153
aF0.0054979675916110573
aF0.0016254777863637024
aF0.0071139945059640738
aF0.0054081033174259215
aF0.003630458007198847
aF0.0065625611327896245
aF0.0037665451202546487
aF0.0047781679041415384
aF0.0048606767717158444
aF0.0003117068934115016
aF9.5919508736359465
aa(lp68
F0.00074029242934819071
aF0.006497508006188135
aF0.001789732047183899
aF0.0011710728415795402
aF0.0014178480274793935
aF0.0012780869804585727
aF0.0021047535202518134
aF0.0036506578930892764
aF0.003734074043894101
aF0.0038409260355050196
aF0.0024142908208415028
aF0.0051982402822470701
aF0.0023939234950066035
aF0.0036468491860892089
aF0.0011919324892769416
aF0.00033773734819687992
aF0.0059232727371305496
aF0.00094199311731064581
aF0.0059574862094753265
aF0.0032706294878485881
aF0.0010929329713573657
aF-0.13999018557969375
aF1.4565657224231505
aF-0.25989353375036039
aF0.68879356226590727
aF0.40012999365390867
aF-2.3492551644106192
aF-3.5531390382743044
aF2.0960475906326925
aF0.17846688565341173
aF-4.9452624209927931
aF23.778354098004112
aF-11.022491177158377
aF-14.547539429296858
aF-9.4223372822006262
aF-3.7578163012776122
aF-3.1439185107895189
aF1.3654591018892366
aF-2.6123757250109754
aF0.00029881955498976305
aF0.0050534682529457756
aF-0.16967805684551115
aF-2.6634168163326333
aF2.0512994222536687
aF1.665874523819759
aF-2.7444690592217778
aF1.7423677438721075
aF1.0688089558479648
aF-0.75035032874432173
aF-1.6371620172459123
aF-11.467927687293408
aF18.994155366249988
aF0.0018425249472092604
aF0.037165577122938477
aF-0.2265871023219766
aF-7.8740033553452706
aF-1.2721993262790832
aF-3.2027233056589575
aF-1.8089907031340025
aF0.0011225337643568573
aF0.0055901498701647024
aF-2.5541518904710818
aF3.1447011236872897
aF1.2746118128707202
aF0.67936837352209667
aF-2.0517137059952533
aF-3.4548298986094164
aF-2.207418973423843
aF-2.4487971395488199
aF22.310346432278326
aF-7.849299114770961
aF-8.2884488161861061
aF-3.5677631202467115
aF-1.3836357748443187
aF2.1070652276274942
aF2.6525179665445346
aF0.060532580616936435
aF1.7430747157063589
aF-1.5946733011123357
aF0.0070012793636515516
aF0.0034076846877483889
aF-4.1840594316507875
aF-2.1135749691074359
aF-2.6026742259527125
aF3.6628854969635358
aF-1.9875323497576916
aF-0.33090362107991839
aF-3.0723589688562161
aF0.033887730485291472
aF20.528804744254678
aF-2.0143574298679714
aF-2.0842684637119921
aF-2.2738747589216683
aF1.9151721581433063
aF-1.5088902274516689
aF0.64685930139734849
aF0.47217499739800567
aF-0.012671847612630445
aF4.4489250542028635
aF0.0017403107524940041
aF0.002619437381693191
aF0.60394302230882435
aF-2.6220539007806054
aF2.4741230637003806
aF3.1680976814753654
aF0.19537122461193901
aF-1.1405113107261151
aF2.894665863766785
aF4.13336762837229
aF0.99547195194521609
aF4.1518112024393341
aF4.5896510165777036
aF-2.1980523764853332
aF-1.4017660927046642
aF-0.17503683572859208
aF-0.46009170262879651
aF-0.22927131765488137
aF2.3005170178617558
aF-0.80128519149967747
aF0.00043932348481115886
aF0.0059686579416881437
aF0.0059553440552944995
aF0.0033529005562291446
aF0.0020389756280079735
aF0.0057640634300324366
aF0.0020921726203510199
aF0.0040848420975820397
aF0.0049291021294393528
aF0.001106424791073373
aF0.0028400817475502525
aF0.0057473733226827651
aF0.0048277841211224045
aF0.00019381861244490071
aF0.00068457853951612462
aF0.0063716730499079957
aF0.0023664583077617524
aF0.0070688179379239319
aF0.0040751325659696561
aF0.00065647456713543756
aF0.0022363114109770527
aF12.010347978882649
aa(lp69
F0.0024342065011979186
aF0.0046246129312556648
aF0.0053108183067705778
aF0.0036146709626357345
aF0.0012193042119808921
aF0.0050371003622172407
aF0.00046148179563641159
aF0.0047445564532108808
aF0.003878858951487573
aF0.0052758344449310357
aF0.0011487307029976548
aF0.00036948652215258211
aF0.00056291061221718387
aF0.0058275661244608533
aF0.0065517261072416634
aF0.0025703794884777815
aF0.0033902259829005029
aF0.0035932093036324456
aF0.0061695200172914924
aF0.00050572020174169949
aF0.0039194684162170987
aF-2.2738369010299135
aF6.8684483442754143
aF1.8833864578575541
aF11.009934716180545
aF-0.15114952053238775
aF0.018498147373180715
aF8.3194228202690077
aF2.5427355067350836
aF3.9587770826544535
aF-0.052620074208918413
aF13.711955892987099
aF-4.7136497178421424
aF-0.10707406540721602
aF9.4686802090546234
aF-3.1362914475275163
aF3.2317456182988726
aF1.8204073229947151
aF4.7371670393782033
aF9.8509332684301333e-05
aF0.0020255304913633183
aF-3.0549201165779989
aF2.497897659512669
aF1.1043889580497708
aF1.3574481946965491
aF3.332317128735196
aF-2.8344190189300944
aF-3.9999281416064187
aF9.2055029445815855
aF1.5306544414513474
aF3.5549222381624164
aF-1.6295048594580566
aF0.0011798812837336406
aF1.1712381252982953
aF-0.75671631156537822
aF7.4129443806883319
aF0.69042532850126792
aF0.081312277926272478
aF1.9802520488962785
aF0.0038993487952535019
aF0.0005859306442830551
aF-8.4729978963801358
aF-1.3311400140549032
aF2.7515342859110561
aF4.8815820500997207
aF10.68879523141325
aF-9.4566556211836197
aF-7.2554313595262849
aF3.2168445284521696
aF2.4102789583195752
aF5.1138751956014241
aF9.1729758568199298
aF6.839044811522716
aF-2.4604067290840526
aF0.60910936904288338
aF1.070700358576937
aF4.4300802479460968
aF-5.8454599054846073
aF6.3791539896417921
aF0.0043248226964703379
aF0.0051051756144298846
aF-2.0066933281113122
aF1.1792858671212438
aF-0.47316146457587344
aF1.6077728560679081
aF2.5552369017577421
aF-1.1773727577425794
aF0.71200879925070937
aF-19.557139943582282
aF2.6385383813130958
aF5.190422206148237
aF1.5505722247588052
aF5.2160056879524177
aF-0.49776435561032828
aF4.2076065091334476
aF2.8557447969477541
aF-1.2126200157817875
aF3.0384667722323053
aF2.9080784281617822
aF0.0039117055994178874
aF0.0034650995746240525
aF-16.941905265501742
aF-17.589943740152577
aF0.83332884363456794
aF3.9805591105966571
aF3.0956748858442502
aF-12.957897205802505
aF-4.728174315906597
aF-7.9205662144244071
aF-3.8885958208062354
aF3.6999350982326984
aF-24.092566704540694
aF6.7165161806630076
aF-9.7802489563451491
aF9.6367537913937049
aF-17.743105540169115
aF2.4090707460876208
aF2.2746543990912285
aF-22.079092492830224
aF0.0038296633886148782
aF0.0016339484099555149
aF0.00093446310453527926
aF0.0064910002878939043
aF0.0013110056123112296
aF0.0018733981642219621
aF0.0040808267724749313
aF0.0031521758061319786
aF0.00012002860384624423
aF0.0063670138810206361
aF0.0037472253359512463
aF0.0071271805301977827
aF0.0047814862384919785
aF0.0027426425627420656
aF0.0050373381566380208
aF0.001738841738258742
aF0.00064527095378494965
aF0.0015905683770342572
aF0.00033565532070904404
aF0.0032886175296281375
aF0.0023051425945380755
aF-1.3600925661787553
aa(lp70
F0.0021062403437690836
aF0.00070886370072800666
aF0.0040071121933883715
aF0.0026561459620779303
aF0.0061378719225343688
aF0.0071030006506397963
aF0.0049642754972025202
aF0.0039430620699714685
aF0.0036641683449070927
aF0.00039659044211257495
aF0.00075651912007529333
aF0.0057598086291959878
aF0.0047813011682044252
aF0.0037518568721260398
aF0.0053713808715296673
aF0.003818339206748669
aF0.0044346175058796889
aF0.0043315183829163491
aF0.0059929146802959864
aF0.0046326819535080213
aF0.0033465338621407785
aF-14.220088468609639
aF-0.75725009502652152
aF-3.6788791025781808
aF-3.2720914101032963
aF-1.053321825776627
aF2.7310678796965089
aF1.3483435769027916
aF0.1786066158029298
aF8.0935107782241023
aF-1.1585335078617858
aF4.1280557754332223
aF10.86812569116856
aF2.9379621542411787
aF3.7502531589294694
aF-0.38004234612146703
aF-5.3815759702152368
aF0.77883997771437541
aF2.6775270588678688
aF0.0020970291025772811
aF0.0067055728845773046
aF-3.187107182423552
aF2.2460148681986114
aF-3.3998639197470162
aF-1.3948580371742785
aF-4.8166969527011636
aF-6.5175266561761802
aF0.31357607743180166
aF-6.1892621846183555
aF-5.7575701256506093
aF-2.136952210475318
aF-6.7118574817207843
aF0.0023230309171726584
aF-1.5514313257783949
aF-5.2845202434038905
aF0.25515593110079299
aF-1.4843429642002803
aF-3.2331715128861926
aF-11.273765906041969
aF0.0048333199836873659
aF0.0021504223745570485
aF-5.9039516425656249
aF-1.2776788277669495
aF-5.702997453005918
aF-1.8162237275593056
aF-9.1490283827076944
aF-6.6646524985913045
aF-3.5473585513478159
aF-1.9699463406787898
aF2.4092666588155374
aF-7.8247448215697011
aF-6.5597849979014597
aF-3.232874720616068
aF-14.78198916861915
aF-18.216562921190562
aF-4.3833260308095472
aF1.8041416792470784
aF-3.23083212303131
aF3.030498253664474
aF0.0024655148614040373
aF0.0035359683716959141
aF-4.9850991466282899
aF-1.3452541906482072
aF-12.682571810090524
aF0.51762995202553408
aF-3.1463954952744979
aF-5.1918373792582031
aF-5.2835610021300123
aF6.2673472918139543
aF1.9534642474834902
aF-10.950219653812129
aF-5.6948219201726928
aF-2.723672302200514
aF2.8753074882212877
aF8.01008310872629
aF-5.7049351523346044
aF0.30543719568571354
aF0.6034513694351934
aF-2.2320049666016115
aF0.0061984019098795745
aF0.00076637784751909998
aF-1.083014591994468
aF5.6876336269781147
aF9.8076473131993893
aF-13.112020306014466
aF-0.48643240915873703
aF-3.0807486631084986
aF16.871204933621005
aF-11.957935700296701
aF1.3263709602521832
aF10.512534044642914
aF13.124994555460672
aF-11.080063231512515
aF3.0704459663025516
aF7.3288010179853842
aF42.573188408352372
aF-4.0027855215574952
aF1.0340682873844014
aF8.8010263680186984
aF0.0050996346886694813
aF0.00038397974208121967
aF0.0031611630179408821
aF0.0042467449994789729
aF0.0052732855317428069
aF0.0040715912099992492
aF0.0014157114387062322
aF0.0035079761237840536
aF0.0020457539570868386
aF0.00084329793514497655
aF0.006489720302505904
aF0.00040810405272409295
aF0.0018033440758824008
aF0.0063800291574108142
aF0.00088607408697378943
aF0.0039432882588896411
aF0.0048008667132482339
aF0.0038919636173317096
aF0.0056509964157910016
aF0.0033374967762019939
aF0.0036857354148171094
aF6.7376425596575116
aa(lp71
F0.0055204904173081076
aF0.0012598739009077741
aF0.0070399954188206885
aF0.00067241560761929298
aF0.003126698447800376
aF0.0016821920771536935
aF0.0039557732298792824
aF0.0047221706551308276
aF0.00041103861391841303
aF0.0019543210170443462
aF0.0034105242352705512
aF0.0034307841637074969
aF0.0063590128887092406
aF0.0017454041923580846
aF0.0014844943480856719
aF0.00598435922151286
aF0.0010109339307120436
aF0.0064309221958335832
aF0.0053426244563353244
aF0.0030811325939670516
aF0.0023953075841063091
aF-6.8551728401376488
aF-13.354898801354301
aF0.46374796265482277
aF0.50905169523446048
aF1.4494899794854308
aF-4.9250898427554226
aF3.8206667614355032
aF0.37113393248156212
aF-4.3727577020480721
aF1.4691338697532703
aF-7.856181144292445
aF8.0775564433473566
aF2.0511851717700518
aF2.1638434068063184
aF5.5245758921727361
aF7.7284916493365152
aF-2.105187544891622
aF18.167793508642745
aF0.005696452950349754
aF0.0047482125456552362
aF-0.0070449383500533879
aF-13.328753376454774
aF-1.1282546725117308
aF-2.2939501358617815
aF-3.4898054272176324
aF-6.2891316533953576
aF-0.30935947965443511
aF-3.1522548533855579
aF0.37889178440532256
aF-2.2515324663866552
aF-4.7955128277707528
aF0.006313515627844362
aF-1.6432063504432357
aF2.1682361043211849
aF0.32208890067790324
aF-6.0668066388311246
aF-10.785804054057216
aF18.445338212929972
aF0.00016996473599768444
aF0.0021551048873228841
aF-7.61977429123192
aF-11.233410460120657
aF2.0631953325528705
aF-0.99665973622259585
aF3.2314207509417407
aF-10.567293187225518
aF-17.534065843254986
aF-0.30718292137016318
aF-3.0645361901422814
aF8.2962684644577536
aF-0.12514179171181913
aF-7.6012667740625233
aF-11.464379797729224
aF-2.6712503970087149
aF-2.2018212662983765
aF-2.9392756924458849
aF-2.476955513731752
aF-3.1055759742574374
aF0.004596977893446561
aF0.0039873002257392832
aF-5.344587634716679
aF-7.382068383123495
aF-1.9087422551900672
aF-0.93670506012167876
aF2.3061800378941295
aF-11.142615332985381
aF-0.80120705865333652
aF-1.5923245917724864
aF-9.6833854986244816
aF0.68545651082033099
aF4.6920141514320282
aF-3.7270620693432965
aF8.1681619900225417
aF0.93423546182555883
aF-2.8711493748700421
aF-1.6476069209198696
aF4.4385988903475981
aF9.3126508384589943
aF0.0020820059096715105
aF0.0010731664816818849
aF-6.7348099568926845
aF-4.5571229836639962
aF-9.2454281697242742
aF-7.2643101460268289
aF2.2278752560513011
aF-3.14993875679628
aF7.0099800332539379
aF-3.0031581083215957
aF-9.7778222885668473
aF13.762278044429182
aF6.7917713496216017
aF-1.1877910996652625
aF-6.9135966655210623
aF2.6812857057552555
aF6.4417022785568303
aF1.8271166314665241
aF-1.0688323209887138
aF7.4428302699291162
aF0.0058199279371787139
aF0.0061000322528575743
aF0.0069027181087416515
aF0.0018670561695498657
aF0.0027579584661506528
aF0.00085757010081018907
aF0.0012648350431652745
aF0.002380838585907786
aF0.002654084406273263
aF0.00077797387378952733
aF0.0041058215422266758
aF0.0071302492613845719
aF0.0014304193351889665
aF0.0069633458151265653
aF0.0049314975244995653
aF0.00029757221651423738
aF0.0066833128954185677
aF5.0402047470601441e-05
aF0.0033070468566785425
aF0.005482155283798305
aF0.0065032165573268306
aF0.036607291072512337
aa(lp72
F0.00035325328331225244
aF0.0049747205557326233
aF0.0066998443422842252
aF0.0031569179055851455
aF0.0049813749653428909
aF0.0033887981798020337
aF0.00022236849118465385
aF0.006030550078638717
aF0.0051832432352665013
aF0.0053388683809576752
aF0.0015327854906471768
aF0.0067347800665372168
aF0.0060437074698359468
aF0.0011072011258743892
aF0.0039753173452662122
aF0.0015809451550221263
aF0.0058826934836249019
aF0.0030256526575382111
aF0.0044078464981756847
aF0.0036726746733922486
aF0.0039156295909917012
aF3.9164993811716173
aF-0.048182504578620361
aF-5.7894618860098941
aF-3.3835581547688838
aF-0.33074206311313409
aF-5.2379020544785249
aF-0.59627141908436698
aF-0.13723980982633857
aF-2.2659998318725898
aF-3.9809042581542129
aF-4.2598578527806126
aF4.2695262511873642
aF2.2756582062304607
aF1.4824830046033961
aF-7.8840107856426727
aF-5.1414892200726019
aF0.13384316618606484
aF-6.1688751527710064
aF0.0024677914234842611
aF0.0058839328440676436
aF0.52811866109786521
aF0.720194933266324
aF-5.9490680625503494
aF0.098382034190413359
aF-8.6255613911549904
aF2.8840562690851463
aF0.10866050146194617
aF0.36213514483113179
aF-2.5485204946433972
aF-2.7201671257279445
aF-0.50448144900595027
aF0.0027955377888355137
aF-0.081980464047544596
aF-1.2499101317258379
aF-5.346626493033134
aF-4.4046445335074766
aF-3.398079233010681
aF-3.1421591520320269
aF0.00033593708568268362
aF0.0018363802086770852
aF-4.1108418420882602
aF13.219629367965883
aF-4.8131156652060154
aF-4.3666180157209533
aF9.4152920756321237
aF1.2542685577187773
aF-1.0401797985547681
aF-2.0877750368248731
aF1.4576307777184179
aF-2.7110853826961705
aF-2.4101829720139634
aF-3.9953584059002707
aF9.6500893293226238
aF-1.6741537993279629
aF1.4390586163645702
aF-5.1300107160679733
aF7.2874981187786103
aF-5.9768483923794689
aF0.0038376942733656353
aF0.0017628546979191766
aF11.750578626326776
aF5.2466305949017658
aF-3.3058950452329832
aF0.11734786721955563
aF0.41537330047216925
aF-2.1481338490141151
aF-0.71061455400747031
aF-0.71046740798067076
aF-1.0711016200521903
aF-0.82253338829838385
aF-2.2494008464135251
aF-1.6995553612247178
aF1.6813475024410069
aF0.07748068347297965
aF0.60692596090903006
aF-0.33505705814096615
aF2.1570750437835891
aF1.2625930881042022
aF0.0015556143205347681
aF0.0057765981478445404
aF5.7083030796330432
aF4.7142803399938469
aF6.8918903414206287
aF-1.4559010376338009
aF3.0460585556306983
aF-2.2000457971971508
aF3.6891617202583999
aF-1.1809161203323153
aF4.3348209080534312
aF3.5385170833605271
aF0.87264148573869238
aF-3.4544233241592384
aF3.5112917700360811
aF-0.62231196297813718
aF6.4288485958837986
aF-4.1307107656578301
aF6.9280534786076524
aF4.0651934593675749
aF0.0015779679512637637
aF0.0011837818920720064
aF0.002614168006057664
aF0.0017181499604693934
aF0.002742481219210851
aF0.0027617617044602845
aF0.0023819795275423542
aF0.001151885431084212
aF0.0036634805969709338
aF0.0024153385885861212
aF5.8620587025613535e-05
aF0.0036057289404025417
aF0.0062113752951499174
aF0.0067314924822195702
aF0.0032454382713894693
aF0.0018087553740090024
aF0.006103909803868165
aF0.00049365025065182893
aF0.00035646864816174913
aF0.0052184844247233015
aF0.0071364796252551804
aF12.614769911871555
aa(lp73
F0.0026050311409331942
aF0.004439843195498016
aF0.0050807630688281692
aF0.00059931873636030471
aF0.0022898187861892776
aF0.0029406417711819702
aF0.00049966245845759405
aF0.0021722396188619654
aF0.0065406166544317371
aF0.0019489929095491004
aF0.0006487116178460785
aF0.0011353396471718861
aF0.0051470347723387043
aF0.0043806263595972143
aF0.00094152559523053882
aF0.0064335780253967269
aF0.00067538366241725364
aF0.0011158789878423225
aF0.0049060239683454835
aF0.005447035024831964
aF0.0007701520149348567
aF-17.340868598621668
aF30.790724168268621
aF-1.0456856175051514
aF4.0887712420417426
aF2.4006344456583193
aF-12.847545580655646
aF6.5165321405798657
aF2.043984473452138
aF4.2556785535534756
aF-10.445577780663129
aF-2.8315829169127293
aF2.0286737405495208
aF4.7737758680071467
aF3.5050180114720062
aF-5.7953247058794179
aF-6.4751005498666174
aF6.6429225661399265
aF8.0428845163210791
aF0.0015878864309015995
aF0.00063028170648872625
aF-9.5335202007863256
aF-11.692365428562649
aF-6.3081140457600737
aF5.7486735889858798
aF2.0511204386090176
aF5.2201244719038726
aF6.4584809292516896
aF8.1922579857575446
aF8.4836314091336327
aF-3.3959614265548375
aF-1.5458044088222935
aF0.006262692483564058
aF7.3580041025787288
aF7.8815982928796631
aF1.6692890789497925
aF-5.1837990384532828
aF3.6244073171565954
aF4.0513236756402113
aF0.0028086054438166436
aF0.0035905857787605529
aF-23.843737837888508
aF33.986818630510747
aF-0.35025551689776135
aF13.948020498176687
aF7.5748437877119654
aF-0.72456158947917837
aF3.4570712010233917
aF7.0513456550735736
aF3.8161838694370673
aF-6.6726769391860108
aF-9.0208527407443064
aF3.5447589668356145
aF-12.016450971803147
aF6.2809535235602807
aF4.0799245104248643
aF-18.855280067554553
aF25.118244202966917
aF1.6069866541979079
aF0.0030939269774537433
aF0.0061179774285836002
aF-7.0947789122913907
aF2.2680520783391867
aF0.3773849526296203
aF3.7246527492797341
aF-0.21362343710296061
aF-12.553533361126698
aF-0.88602011354158505
aF-3.9188464793807896
aF1.9624738074074484
aF-3.0555077566043849
aF6.9975405033768023
aF4.6782138105216493
aF-0.47999424756302517
aF1.4350154645048234
aF-2.1240820506058871
aF1.1484570778271916
aF-4.34405290501015
aF2.7719624933839149
aF0.00041077343461931354
aF0.0001008851855910304
aF-10.420329739777136
aF0.86647271070752208
aF-4.280270836307424
aF-8.6367360658411378
aF-4.4360797100183618
aF-6.8197273288458851
aF-1.561948058259051
aF2.6521925412757641
aF1.4789936133535018
aF6.3395753481104631
aF-3.428814538200311
aF-4.9953019752836001
aF-4.7441807472180164
aF-8.9036154057535501
aF-1.9268669259369471
aF0.94491760757803767
aF1.6919971116106602
aF-0.14416079151113256
aF0.0069152053504959255
aF0.0058993657271701177
aF0.00045883587564609876
aF0.0019878682667175264
aF0.0050772909578486181
aF0.0014892873328605815
aF0.00044086003713419422
aF0.0036842131223715452
aF0.00078778614735674254
aF0.00120105315884848
aF0.0051788486692926766
aF0.0057533737370230129
aF0.00012091536814495579
aF0.0054022971255181223
aF0.0011119150215571012
aF0.0038624230428118346
aF0.0011953573998519269
aF0.0035791432689321217
aF0.004926567299058205
aF0.0012489313987458228
aF0.0020233117695839338
aF6.9025835729749376
aa(lp74
F0.0011202427876912495
aF0.0030520295135774067
aF0.0045827700031418834
aF0.0039017620648181374
aF0.0018251795092585701
aF0.0013438591930577211
aF0.004764370879264835
aF0.0015571561024502951
aF0.0058215215251433278
aF0.001432710844265286
aF0.0070096776864792404
aF0.0034313123645580215
aF0.0036732762502036673
aF0.0035287123719419658
aF0.0027736941637677829
aF0.0052791406838942345
aF0.0064642570686674937
aF0.0055220837980801529
aF0.0034686783530339413
aF0.0033116895471189886
aF0.0039752103478875624
aF5.2198253536516015
aF-8.6833973903905175
aF-2.9494914544271147
aF0.043999940325321479
aF-1.9170143382620302
aF-2.6059317695884805
aF0.2382736617610911
aF1.1055978895816416
aF-5.3011179054647615
aF2.777190914407933
aF-6.8385940467259845
aF6.6299708742231402
aF-8.191455189658658
aF-0.0018192932178183619
aF-1.7407943764088034
aF2.411898614468261
aF8.145451907359158
aF-12.13043369546822
aF0.0031659832500175208
aF0.00040970526142100773
aF-2.7608731056150151
aF-7.1182204607532293
aF4.4573954534129383
aF1.7842354689966158
aF3.6210550064171021
aF0.94571420839114639
aF2.3980503612238633
aF-0.047736038048999591
aF-2.1842937811669421
aF1.5185090286483791
aF11.948377620038245
aF0.0021418719252791407
aF0.49840301487380162
aF-3.9932143366639306
aF-4.8464788383578625
aF-7.470588248877803
aF-3.5385512188483066
aF-4.4127288241180143
aF0.0034191841391090286
aF0.0067433836920951827
aF-0.22592699064461308
aF-8.0606791611464068
aF-0.052006383667867584
aF-2.8736914318156779
aF1.8335599555692559
aF1.2390263075575823
aF-10.869250166132522
aF-3.95543666706366
aF-3.5503053194734746
aF2.1178122245042945
aF-6.0633406831939496
aF-0.38681931996420316
aF3.2798734416474393
aF-2.2756542707845355
aF-3.808695067742403
aF-1.7021118682746064
aF2.218970182896757
aF-4.5600061427024503
aF0.0037326510228247838
aF0.00037070823504403955
aF1.5169373861196123
aF-4.1189910392365636
aF-2.004792572997129
aF5.9294190280095016
aF2.1718689132934017
aF6.5344225795015323
aF-4.3784947237600216
aF4.8417511991136584
aF12.261165031822568
aF-5.4355435061000996
aF3.4179557401862883
aF-2.9204653934530613
aF2.1361493416288151
aF2.8274688586772978
aF-0.96258184522246615
aF4.9093380719616091
aF-0.83619871342897889
aF1.4372207451817294
aF0.0054107772379755857
aF0.0013606746868119707
aF2.9677227027481994
aF-2.3046785508804857
aF-12.788389344850605
aF-5.6961185031019239
aF6.7937045723240965
aF3.8702541189863764
aF-16.841282317029631
aF-0.13730524780856007
aF2.2432271851378824
aF-2.3597736074529618
aF-15.143719997106457
aF-8.3556790044650828
aF-0.72962287992276853
aF-3.4895769950917899
aF-7.2836104582074945
aF1.4645391630606366
aF5.2995297649859019
aF-8.9478084440455756
aF0.0066155608663616468
aF0.0060408026318740328
aF0.0044530665237059132
aF0.0021393793285043768
aF0.003463738238509232
aF0.0059292353869768982
aF0.0069643903276676768
aF0.0024285420206741405
aF0.0050382955831129997
aF0.0060677256826762371
aF0.0047714735297193691
aF0.0037167079080225049
aF0.0053926663161501165
aF0.0039073798805273185
aF0.0037254016113971635
aF0.0067367263867645962
aF0.00055810687755842388
aF0.0050746757482859764
aF0.0017415506233398976
aF0.00041509788108522384
aF0.0003559035406382717
aF-13.386225851397992
aa(lp75
F0.0029726375394276026
aF0.0068347433760336009
aF2.3535319925824647e-05
aF0.002870534721755465
aF0.0044774907933327222
aF0.0050588239680477909
aF0.00042818917504539668
aF0.0013838221117606401
aF0.0022795945329174214
aF0.00073194340382527875
aF0.0047224178656436154
aF0.00062654500446601626
aF0.0012136542070182476
aF0.0010126920303949278
aF0.0041418346064483408
aF0.002509592608253505
aF0.005305617897503387
aF0.0071002218792127246
aF0.0057367779284379127
aF0.0047498744601717907
aF0.006693465421351609
aF49.069785521598419
aF12.649595106871626
aF13.292734356257588
aF8.6592695740875492
aF6.4477755148870992
aF0.91092797172269035
aF-0.41423537956341971
aF-1.1464600334518369
aF-11.717679463676525
aF-2.33234704213513
aF3.2650726313290597
aF6.2244500178686044
aF0.91486681106885004
aF2.6106221592657568
aF-2.3782194730587967
aF2.2191025101731836
aF-3.1239551756499084
aF-4.9532281496831185
aF0.0026636714341274777
aF0.0015690814694068872
aF-6.156052684347328
aF-3.1228021996392776
aF-11.532599081384168
aF-2.989169640324659
aF-8.3670990474610125
aF-2.8145337857111801
aF-0.94942886809573812
aF-5.4672441736442448
aF-3.1223641995344633
aF-3.4143402745092795
aF0.96295713328065169
aF1.3508495729136482e-05
aF-2.7645681261060693
aF-2.3115822946937405
aF-2.4596889205615939
aF0.42010116646027434
aF-0.49033789367085584
aF-2.4759933332610635
aF0.0038421189299768202
aF0.0019828387131257744
aF1.737902348792453
aF-9.5178062338347047
aF-9.7358996666149462
aF3.8595901020932248
aF-11.838957895096524
aF-2.4961871934082818
aF-3.9459819788600154
aF-5.1070692988062714
aF-1.9305312648877653
aF-2.1704984921824013
aF-1.820676041469814
aF-0.95817809451630875
aF-2.1886788451479577
aF0.014795837405444726
aF-0.25414767204824296
aF-2.4840337549815299
aF0.45861578474662268
aF1.4639245723104264
aF0.0010655273342144731
aF0.0036515630298880465
aF-5.7669586335592431
aF-4.9443518003671034
aF-2.2624008681391063
aF4.091429589958409
aF-0.95103372723957136
aF6.5051534545447751
aF-4.6643625205767254
aF2.097643352683312
aF1.8018289572129162
aF-2.4903604702260203
aF4.4817189589278206
aF-1.4138449870429259
aF6.2982621038299298
aF-0.44345243368234527
aF-2.2369390216893104
aF4.560525148038276
aF-2.9932916845627102
aF5.5288709235565365
aF0.0063301804583403782
aF0.0040143148466358159
aF7.3527059160577837
aF-1.3010525068973333
aF-3.5250416203845201
aF-1.1716741839972977
aF2.7679109955842125
aF-5.3382281272526271
aF-1.3998000656038601
aF-3.4774362745729253
aF-1.7533743836457922
aF0.12637448147120922
aF-1.7215869832344093
aF2.109783327904633
aF-0.24407646369951011
aF1.9757052466557203
aF1.7637922133768924
aF-2.8200540105860807
aF0.87208350469146889
aF-3.7955623224100279
aF0.0044186266499249933
aF0.0043789043494725224
aF0.0020625401185913527
aF0.0067937196005624758
aF0.0050795753746814849
aF0.0048113646400678835
aF0.0060781025369077545
aF0.00085373569439612306
aF0.0057432930561736586
aF0.0029364661233072988
aF0.002856593995688867
aF0.0057966608545461182
aF0.005976178963794908
aF0.00027537999418249845
aF0.0031003981551737067
aF0.0037732194372827352
aF0.0040739535800671843
aF0.002031292868197393
aF0.0041555202855034926
aF0.001046326505822119
aF0.0058812933893541306
aF11.545189134275804
aa(lp76
F0.0021717281294900098
aF0.0014982958083747801
aF0.0001586617024032915
aF0.0048514506958464059
aF0.0004824583951176631
aF0.0049092250809199415
aF0.0042765483508287669
aF0.0047391108580482335
aF0.0069509812292963746
aF0.0032384980977096856
aF0.0037784241002612193
aF0.002902189974785069
aF0.0062683643702750322
aF0.0045681683823882626
aF0.0027722686006122804
aF0.001445568722482559
aF0.0030628563108002051
aF0.0066045896268047992
aF0.003774318025577005
aF0.00097776987232794368
aF0.0068698712843001533
aF-3.52710878400744
aF14.148163064843494
aF-6.2825791924122534
aF-3.0397481211747199
aF-4.81840850732313
aF-2.9101413343723936
aF4.2464121553278158
aF0.76010641875575136
aF0.59444616206535483
aF8.0492376902875122
aF-4.5118274789321831
aF-0.067778219939496592
aF2.8275052131550424
aF-0.37693333432382498
aF-3.4363901120057001
aF-4.5416532951138082
aF-5.6963675494894517
aF0.59474517876853616
aF0.0059277643619090334
aF0.006188949514130548
aF-0.15379702367711737
aF-9.5355386367498802
aF-8.368781637099703
aF-0.0027793510610456171
aF-10.753840749488353
aF-9.1369675803837769
aF0.0030185739600355962
aF-0.11108945753696978
aF-8.002916676856012
aF-0.59937633370651233
aF-2.2529149473383776
aF0.0001338138078990184
aF-0.0043870716396503199
aF-6.8732335762432264
aF-8.4987106187821748
aF-0.39499703577055639
aF-8.6759005262495741
aF-9.0790399112385831
aF0.0018132541931889172
aF0.0031760970469407973
aF0.89066276348373918
aF-3.1372325236976017
aF-6.1181982694405335
aF-7.9881528158789159
aF-3.0550976523995304
aF-3.4661776802436894
aF-4.6813697135733801
aF-8.0031843558988989
aF-7.6455491162666425
aF-5.4776765333662309
aF-2.7185651998966551
aF-6.8062479418098549
aF-3.1421157783350564
aF-11.780880000234273
aF-4.2093338801602664
aF-7.0200979100549876
aF-1.9644545414539891
aF-2.0966089400185846
aF0.0062476522550584694
aF0.0026400426338559001
aF-8.4637262903164885
aF-6.2340198276599788
aF-9.6910014898208861
aF0.00077012849773217299
aF-0.43460468588176998
aF-6.1654176955066493
aF-0.19799103061585308
aF-0.40114426284830357
aF-3.1157737336233833
aF-7.6991988401659626
aF-8.4180938753440522
aF-0.094522269659829988
aF1.748524253890523
aF-0.70170189695893348
aF-0.1629188455605341
aF0.0065993783013319884
aF-0.41466816217218494
aF-4.808885749957482
aF0.0019966616773745846
aF0.0011154090932094986
aF-2.3145985233094781
aF-2.5420204303041865
aF13.674128180318087
aF-7.9007747295400872
aF-4.3292022192686961
aF0.35915498896560838
aF23.304381573847049
aF-8.5128403191990554
aF1.8493730303489502
aF10.122972348139866
aF13.866455036123687
aF-9.217323132297123
aF2.8399750294504771
aF15.302071396458308
aF24.480547061973493
aF-8.3611476714488298
aF6.6791286707151327
aF-0.98362458756720927
aF0.0044429276071567504
aF0.003085017952503087
aF0.0040703745609539889
aF0.0057375943770090615
aF0.0066772242178526576
aF0.00026926582801678082
aF0.0052799616096812869
aF0.00034404470885421469
aF0.0047717281412572223
aF0.0060800360055484112
aF0.0060286557698678257
aF0.0034775421170817342
aF0.0019568759183572386
aF0.0030541710988533674
aF0.0052842033442476004
aF0.0058899191028638984
aF0.0031489598956856188
aF0.0055251424355084611
aF0.0071322664432205253
aF0.0025611926960734388
aF0.0049680279405220846
aF7.8163854232599634
aa(lp77
F0.0012550538746586119
aF0.0020344876655825992
aF0.0012598684694259089
aF0.0064374456279250973
aF0.0024057833709079587
aF0.0037217129506199025
aF0.0058878018608256311
aF0.0056197192161895155
aF0.0019039707116161042
aF0.0032333035002593317
aF0.0033984704290310531
aF0.0052608874318777789
aF0.0011397563375865655
aF0.0031835947846202877
aF0.0036713830697081445
aF0.001947681468104634
aF0.00025539525894701254
aF0.0053715193533772874
aF1.5264257817503608e-05
aF0.0012419260779113618
aF0.004586509530095738
aF-10.159631412939836
aF7.053606847009334
aF-0.62273038835326577
aF-8.7300996672491706
aF4.0428484834887284
aF-5.6346955888664008
aF-11.852558559938196
aF14.010006186830614
aF-9.8077487366902076
aF-5.5065096449280579
aF-5.9761464674207403
aF3.2771591001332401
aF-4.6953804061550573
aF-0.031907885349719722
aF-8.8120384711915936
aF-2.5977125275289801
aF0.37782904373222786
aF-3.3588394424954351
aF0.0025443919042853194
aF0.0045304403003386604
aF0.12433590870292338
aF-4.9647276829177613
aF1.5065484038768264
aF0.91128272985061542
aF7.0544447137812893
aF1.5697124579798958
aF-0.092758344745432444
aF-2.1008319620758678
aF1.1567606941748483
aF7.0858826121798684
aF1.837735686689111
aF0.0038371521962069902
aF1.5044770288567004
aF10.149942059022244
aF-1.7105241721900402
aF-3.323321718789265
aF3.1181784801096941
aF-5.5870579089970747
aF0.0046086713708019741
aF0.00062897161100772183
aF-8.7124920304290097
aF3.8971790225419518
aF1.5898009251456566
aF1.5926042999213748
aF-0.40200103491963152
aF-2.389312884267119
aF-15.860348356536866
aF1.1224021967012341
aF2.878699444658344
aF7.1203200738768331
aF1.3968379699147544
aF-1.9393430965014258
aF-8.6495786113589688
aF1.3337752706570298
aF4.6260110387941831
aF6.8180246186254863
aF6.2138213639901387
aF7.3051357681588769
aF0.0020307947117457598
aF0.00032540613484171113
aF-4.2498953577240615
aF1.8466320945131101
aF7.237702743661762
aF-0.86740015305998219
aF0.40122835578795324
aF0.80231498528062917
aF-1.9494958705732726
aF-1.8295690360653638
aF-12.547009969862723
aF-1.6273971565331802
aF5.1224853004997009
aF2.6668602930388432
aF-6.3124045833687097
aF-3.6629769123819842
aF-3.9257942318413765
aF-2.4400431854059628
aF5.3117407948809587
aF9.5620767348146813
aF0.0033520699213055996
aF0.0005735731607378851
aF-1.5280286811594554
aF3.2613327060830679
aF-0.53563069006276354
aF-0.15275630828257247
aF0.55940268148014649
aF-1.212099494231873
aF2.2321399574817371
aF-0.94847845237943407
aF-0.34548385010405641
aF2.3403047751158375
aF3.9372714460602869
aF-3.8933276898226117
aF-7.4898492164787864
aF-3.2636602382756665
aF-3.3628205917460057
aF-1.2939085099270002
aF7.4547973805968644
aF11.226800924721346
aF0.0027787721486021138
aF0.0035447674949589457
aF9.5440769641534444e-05
aF0.0053466968037902728
aF0.0010485093798315978
aF0.0063432209028832067
aF0.00060041086747373933
aF0.001261759326597317
aF0.0053129169093352972
aF0.0010977591462911552
aF0.0049809279832102862
aF0.0013881822285582348
aF0.0022921403652318754
aF0.0041805566783760378
aF0.0040711424679023599
aF0.0067857523793569321
aF0.0070231377484944032
aF0.0066062782672917817
aF0.0029864367898568729
aF0.0052002964661365201
aF0.0029165809846221102
aF1.4411038104040506
aa(lp78
F0.0035842878470953845
aF0.0032592890902233044
aF0.0057385867378723469
aF0.0036133893781286237
aF0.0051315376968129617
aF0.0060836627128588857
aF0.00042329477735126138
aF0.0034234078749000008
aF0.0062626853139004469
aF0.001167859259342601
aF0.0028415107610316689
aF0.0025891616813500462
aF0.0041028292858118235
aF0.0042225790898511202
aF0.0043012937128123719
aF0.0060139498692048723
aF0.0045719625343900745
aF0.0070903082144516049
aF0.0066289833531589662
aF0.0057898147570436707
aF0.0053943372677935485
aF-11.164531267872063
aF7.2880690075772616
aF-1.7145540330968956
aF1.5286574801170125
aF8.5131552925118452
aF1.7327977095803029
aF-0.2232665747483826
aF3.7327001474978969
aF5.8907336510187482
aF-0.31634912102206691
aF2.3489120707361537
aF4.6965812605961386
aF2.0604436865609475
aF6.5793987084532288
aF-0.7038501632552101
aF-3.9767486544634432
aF-3.8707772192427745
aF-6.5185457121237711
aF0.00052580368912544489
aF0.0056237380909691806
aF-0.17385929903947703
aF-15.358507773070464
aF3.337997885555362
aF0.099375775326941695
aF-8.4816903948544144
aF2.7065981168342583
aF-0.44107452899086103
aF0.15543373120581697
aF-0.16699758751283023
aF2.6484608134324343
aF-4.8028357111602089
aF0.005543826875263779
aF0.11017730100019756
aF9.9121477083632197
aF5.5302144375577527
aF9.0014764258062527
aF3.342034202459212
aF10.829375929924568
aF0.0025200040299206351
aF0.0035338226413389557
aF-14.352674645969286
aF6.5071097942579863
aF0.53244269826169388
aF9.8468565869108922
aF-14.170963606465415
aF4.7789061014101026
aF24.454791958741897
aF-3.6521892648241421
aF2.1329698287316941
aF-0.035457838200279597
aF16.994335803027447
aF6.1371323699178797
aF1.037239724705834
aF12.81270287771482
aF14.863149068268646
aF-16.371533542601391
aF-3.6225589578322439
aF3.8940331682929195
aF0.006233853596928747
aF0.0056815362123766051
aF-8.1867746745910299
aF-1.6402971172291523
aF3.1394889678505975
aF-0.9441124957975876
aF4.3891180819889879
aF-13.994838045520403
aF-0.42573135218004859
aF-1.1755199796206171
aF-8.2665415644897937
aF0.062383130831641709
aF4.7643277463055949
aF0.0063125809515232785
aF-23.262428532014077
aF7.9892837195168278
aF2.767216910952627
aF2.2788985314846038
aF0.23402042128062098
aF4.2304641285649041
aF0.0026843213222390049
aF0.0055563381054194909
aF-7.5011947176730533
aF-7.2981456404343819
aF-2.5133768674892485
aF-5.1654107207649647
aF-1.1589206349291705
aF-4.1334377772296307
aF-4.3519237914390407
aF-6.6896402902914307
aF-8.7295100099578509
aF-7.8920103278006959
aF-10.127734378550114
aF-15.522637165398386
aF-21.279224151310231
aF-16.049672662061059
aF-4.9773273863146361
aF-0.28252073717673171
aF-8.675262054210684
aF5.7197163736249275
aF0.0050503223588733177
aF0.0017283916477077428
aF0.0056497844536764806
aF0.0065949729091265459
aF0.0068622949003865853
aF0.0048652564059936121
aF0.0017200888081999289
aF0.0038158631330303789
aF0.002676705463741717
aF0.0021308943231055201
aF0.0031879357178441039
aF0.0032669360064401837
aF0.0034387198001128781
aF0.0010523281951779326
aF0.0019823669777089604
aF0.0068560502586468234
aF0.0031612382593450444
aF0.006004939539143014
aF0.0063046481057442748
aF0.0058934901107418414
aF0.0032131063314553123
aF1.7500945500203371
aa(lp79
F0.0046907257457294328
aF0.0057233464067100222
aF0.0070891194562853607
aF0.0019079844649372965
aF0.0037708616761808048
aF0.0070380446749472468
aF0.0051654225312101239
aF0.0023689433047710414
aF0.0064176096832620809
aF0.0010445785398384636
aF0.0058693213912134603
aF0.0035108704902249766
aF0.0064125290382660181
aF0.0012769284134672369
aF0.0064772657268673513
aF0.0038010964119103217
aF0.0053582515495422412
aF0.0036868468250213886
aF0.004087799445407601
aF7.115851217435505e-05
aF0.0015076212028354344
aF-13.35803725088536
aF-1.4330868085674615
aF-2.4422867358932363
aF-4.3683842327306506
aF0.70038682029806143
aF2.1822988245907804
aF1.9064522091004392
aF1.9916972227009153
aF1.422602080206973
aF-8.9606222304807606
aF-9.2875316102794034
aF-4.9213767807806219
aF13.884713012336045
aF-8.2573917807782653
aF4.6951945181827535
aF5.6978043132946983
aF1.1641574476276961
aF2.1126478740826844
aF0.0031537599694634981
aF0.0060722803604982261
aF-5.7697735825695284
aF5.5257278242437362
aF-2.7131297355399715
aF0.013787782792754437
aF-2.8211149433759544
aF-5.5817348901748955
aF-1.5295846068814292
aF-5.657516955882663
aF3.9552977332796666
aF4.7487225211857753
aF-2.7861354780530889
aF0.0016848095288062653
aF-2.6558227142626318
aF-0.17004942383737007
aF-1.2949432736802959
aF4.9572845590729688
aF3.2176910467837803
aF-2.7522390769807377
aF0.0046024987365725677
aF0.00079753846682456954
aF-5.9853712142553457
aF-11.849675311100194
aF-8.7941006543857387
aF-6.1670320061057202
aF8.9227213548478019
aF-10.781920777890054
aF3.8667918097095235
aF1.590227163162766
aF4.2210615008010306
aF-1.8177410340173883
aF1.1176738359618654
aF1.6854951901762385
aF-10.10594177445275
aF-5.8137798073887987
aF-4.3437496627577454
aF-1.0123873869453512
aF-12.644181759927346
aF7.0384829061221712
aF0.0070725538620150978
aF0.001912646555707386
aF-1.4088824915589784
aF-0.012412540672597023
aF-2.6772642278815462
aF-2.1605013136253013
aF-5.5252163357269195
aF-1.8982315456828438
aF-1.8688868972992758
aF-2.571775884350807
aF1.3724523832004252
aF0.19715555373130789
aF-2.8574371970982306
aF-5.9209570828201086
aF2.4689465347699944
aF-2.1788404972844688
aF-5.2232018149171733
aF-1.5625223304848519
aF1.819387110024576
aF-3.01881380785382
aF0.0020330899748650941
aF0.0029883422306678344
aF-11.052722857055961
aF-0.90236536206897933
aF-0.017818869470192397
aF10.390535193411116
aF-8.708148855972043
aF-2.2927109351884094
aF0.739601821393013
aF4.2830198616630675
aF13.003831993213346
aF-2.0548301599144878
aF-17.623080831470382
aF-0.14426664966538788
aF15.677966633080247
aF-6.9221820634210198
aF-7.2282800417809021
aF1.6693472361759008
aF2.3210415919153893
aF-1.0083909314934925
aF0.0038069438854495693
aF0.0056398140437578931
aF0.0042188835644222213
aF0.0021434282026370813
aF0.0018050063778063937
aF0.00023246657217826212
aF0.00095205589053985143
aF0.0017294469688416494
aF0.0058189419350265711
aF0.004832393573438112
aF0.0042147237137816476
aF0.00016727306928188295
aF0.004488551289592419
aF0.0057237636212617207
aF0.0067151359512213037
aF8.8852807203640026e-05
aF0.0049706863702827985
aF0.00049956626785166837
aF0.0026784394834436201
aF0.0048263681533050242
aF0.00045998847405435218
aF-6.2797430777513519
aaa(lp80
(lp81
F-0.16518871919904626
aF0.11014101865917626
aF0.92740875884564566
aF1.103397293468229
aF8.2380574886604236
aF-0.71839114474532639
aF2.3200339757839541
aF-4.2975893972777905
aF5.6794472596273895
aF-0.1285898198631602
aF1.6579661081814587
aF2.1147486478667274
aF4.3285632872532025
aF2.4925098452867545
aF-0.52607318359028032
aF-0.21988465286861911
aF-8.5652073571162681
aF-1.4645966680018212
aF-0.031299101425455389
aF3.2609969234300067
aF2.8554735128548341
aF-6.5985890428650702
aF4.8858516548366948
aF1.2227261840028676
aF-1.8577445972722062
aF6.3017507592465059
aF5.9404295234329387
aF1.5633396831555342
aF-6.1689009413602625
aF3.476341834222771
aF1.3552990698374456
aF4.386127178863866
aF-0.3216419937955885
aF1.5715142783548042
aF1.147677681809151
aF4.325630682185885
aF-6.4283633531038289
aF-6.9905063651949222
aF-4.0051190039323554
aF-17.455816536234316
aF-2.5882800314251901
aF5.7342073401906983
aF-0.71958973972704376
aF0.2908277337129514
aF-1.1639533475576131
aF-2.4417498457226454
aF3.3825117588499256
aF3.8596265894581063
aF9.6108374202339899
aF-2.5688120749325871
aF3.2602836609598373
aF0.39561221425556292
aF0.24475661645944108
aF-2.3340301305443378
aF-1.4752020729235211
aF0.19861686770295178
aF10.055659781390762
aF1.9057005283691135
aF-0.97981038777711293
aF-1.4718394426609431
aF-0.75200166941336866
aa(lp82
F-0.38950008945476933
aF1.0687189093266256
aF-2.6735272040888831
aF-0.55029598610572283
aF-12.173435702569456
aF0.31370755823648255
aF-1.6001847713528945
aF-2.0145640218239675
aF-2.1742123471363257
aF-0.31297597947586808
aF-1.2921847130719202
aF-2.7349569667145679
aF-4.9177345026276269
aF-13.651216305231467
aF-0.42437939776436068
aF2.8262070092218261
aF3.6589171662230711
aF-0.28017174581906734
aF1.679189513942319
aF-5.4367014678256345
aF-4.5390923332480586
aF3.2270694261323536
aF-9.0451164486682138
aF-0.7196092825431486
aF-1.0285817205424603
aF-0.14520121010827336
aF-4.106355543866524
aF0.14248648160025082
aF-2.3797870668970886
aF-5.6789478589979794
aF-0.5127396666946753
aF-0.84903893503425809
aF1.0800391117156827
aF1.1085599785768296
aF-0.31876574563232024
aF-4.4235808893830511
aF0.52476592406042355
aF-10.780229589991446
aF0.56744744529031932
aF3.2035235511104414
aF-2.5339694212620332
aF-4.1475906967546781
aF-0.24983073643354903
aF-1.1812446455521819
aF-3.7662256769835443
aF-1.6570071606185528
aF-5.2805865921527131
aF-5.0005426306298579
aF-6.4853290380056272
aF2.6474320568920402
aF-0.1207093303242439
aF-5.5464485105182897
aF-3.0823029244209881
aF-0.92142062496030197
aF1.2910774620172176
aF-0.88322991065144485
aF-1.0731999108857386
aF-3.094374742436059
aF0.43782854416282074
aF1.1757679512441501
aF-1.8880008040139007
aa(lp83
F3.3543581798350863
aF-2.1328791006275662
aF-3.2958362636956813
aF1.7868767046946172
aF-7.7673859281551989
aF-2.9271993346889698
aF-1.8247226088016519
aF-3.1868448998443557
aF4.8112391253646711
aF-2.5389309422942405
aF-1.3916896904398897
aF3.7723747296088499
aF4.4179598600817496
aF5.0262764547531038
aF-1.7821137217229417
aF-3.622187179716176
aF-4.7123025452520748
aF0.54274619714404837
aF-4.0456209808560306
aF0.1472625942114297
aF-0.065417681333563057
aF1.5098552677171431
aF3.545713521041169
aF-0.16696576671880453
aF3.4303451923414978
aF-1.4666745287817846
aF5.5288515227773303
aF0.78953516763798604
aF2.807255038775462
aF3.8739413868766501
aF-4.2304762283024884
aF1.8306141257716826
aF2.0835568140899285
aF-2.3155226250206504
aF-2.3176120294818938
aF3.6714157680266846
aF8.0250082949229551
aF5.0528396383859819
aF3.2502472007237473
aF3.3186831721536127
aF-1.0912486655004834
aF2.4179973309218386
aF-2.3637304400591472
aF2.8713614571930073
aF-1.3565131339588619
aF-1.025303187883672
aF5.2309073748738122
aF-2.9226649655293855
aF5.1539832325033546
aF0.41736323446196499
aF-0.61259312585343284
aF-13.351915013625286
aF-0.81656758325765566
aF-4.1214123508232587
aF3.3442088154391314
aF3.8609880594726147
aF0.0028118853608832171
aF-2.1660819393774262
aF-1.4799446923546813
aF-1.6594974771286435
aF-0.88984690527811017
aa(lp84
F-1.7521389656165922
aF-1.530153035647333
aF2.2997573479436126
aF2.6078615474391293
aF13.274627501528233
aF1.9791753875917062
aF4.7366549372344693
aF1.8929990981834746
aF-6.2515663708733671
aF1.7261856863230283
aF2.1150624864029353
aF21.513562046898048
aF11.800615935111423
aF1.4239262126333723
aF3.3409632733646992
aF9.8480236095160709
aF5.8733548469324557
aF3.8408224754896736
aF2.6597873538121997
aF1.6427939366174105
aF2.4532871854901552
aF3.6204507720490926
aF4.1645206346457826
aF5.3069942956225988
aF-1.3996086738439315
aF1.6786974592929023
aF0.98552278962489415
aF-5.832281907540187
aF4.6058699816183211
aF-2.3658148203543785
aF2.5385059173819342
aF0.18763025135379149
aF2.0709276283376652
aF3.0699944285755993
aF2.2598937036563762
aF-4.3396948341661838
aF-18.954929083266666
aF2.649508647459959
aF-1.1174073265381428
aF5.5464523995067259
aF-1.2680992355279923
aF2.9748336828038728
aF1.0002668256215024
aF-0.090513186499897452
aF0.4330580067752513
aF2.9475042848360089
aF-1.1418891936919211
aF10.67006994215277
aF-0.22594165180309919
aF2.2908010864885533
aF3.0233921879918597
aF12.205942301909744
aF-2.895942215748148
aF1.6639741162496817
aF-2.9974440949185617
aF-2.1286877254606327
aF3.810373433998576
aF7.7460297917015115
aF7.5919996933640856
aF11.354905841142122
aF2.1655369879720041
aa(lp85
F-1.0284603385420645
aF-1.014670749229508
aF-0.98930029011826615
aF-1.180480279612846
aF-1.0243382564662598
aF-1.7718679875814669
aF-1.0572474480009502
aF-1.1147091245294207
aF-1.2595174462257064
aF-1.4604209139119211
aF-1.0794684409552964
aF-1.0735110255982017
aF-1.0240066283956126
aF-1.2765634856418675
aF-0.9411626538736757
aF-1.5414468492461129
aF-0.97694084171641737
aF-1.485649486479595
aF-1.0111322234663185
aF-0.98988635629789734
aF-1.1029508952613796
aF-1.1167508987116312
aF-0.92876435958341497
aF-1.0991281903783152
aF-0.99425480710250103
aF-0.90391283757807905
aF-1.242477696668892
aF-0.83634295737672293
aF-0.94142065260343466
aF-1.1799381739870101
aF-1.106470708193908
aF-0.94944942144734701
aF-1.2504255931362929
aF-0.96627059973424678
aF-1.4741924576932308
aF-1.0276125230568027
aF-1.1140146895279872
aF-1.0033526119573997
aF-0.89704224296519586
aF-0.87866143785829065
aF-0.92600032321015502
aF-1.0455926875960373
aF-1.1943499421375212
aF-0.86712066556124179
aF-1.2117557157901933
aF-1.432333035023275
aF-0.84341873641730902
aF-1.0406959567805885
aF-1.0550410402474182
aF-1.0505052683606564
aF-1.0147291207520535
aF-0.94387739431993722
aF-1.0059865575706195
aF-1.0978693252185343
aF-0.94043745482880536
aF-0.98648363545951911
aF-1.0815198423705783
aF-1.0259450718174354
aF-1.0833356355452559
aF-0.93104337522373992
aF14.311854188461361
aa(lp86
F0.55072835444673784
aF2.0407405262420162
aF-0.21604562658556573
aF-0.034628090527839266
aF0.86729299332692988
aF-0.0054065845581435634
aF0.30313986644342372
aF-0.12665308696816241
aF0.10344243115363956
aF-0.45168868994772376
aF-0.089892217301507288
aF0.082430117305354225
aF0.07914094475230439
aF0.13382936713816662
aF0.088979079616248527
aF-0.20144970546763905
aF0.10893840572148802
aF-0.03755003678729206
aF-0.08273763067534716
aF0.092653322795705539
aF0.083055547827779894
aF0.51661956508849227
aF0.39560260205947645
aF0.12765738449070838
aF0.4272374348482571
aF0.5343026035151266
aF0.05214907980373501
aF-0.037912932090180811
aF-0.06592880046433959
aF0.30938021938406757
aF-0.18143220259913759
aF1.1113949632432336
aF-0.091069389242273091
aF0.030058668280599804
aF-0.28820220270930236
aF0.045249941321886582
aF-0.54756504197792244
aF0.20201210624652816
aF0.12219558760608357
aF-0.080589889353178734
aF-0.034896866503891739
aF0.023036600725762725
aF0.027043666352823313
aF0.13876253854301371
aF-25.021815660455022
aF-0.073572312131313461
aF0.41146205412639419
aF0.020527117211898902
aF-0.1743085893559195
aF0.13093905242844892
aF-0.21218842835403637
aF0.16451291668183798
aF0.1809404728325697
aF5.7633596532664657e-05
aF0.40033485147294817
aF0.21262588630887364
aF-0.033358279198336373
aF0.27707069424329933
aF0.25072372279442667
aF0.28140557027469892
aF1.7156810507672371
aaasS'moves'
p87
I152
sb.