(imultiAgents
NeuralAgent
p1
(dp2
S'index'
p3
I0
sS'net'
p4
(lp5
(lp6
(lp7
F-1.4748940156266008
aF4.0492097723416407
aF0.61716633210164795
aF-2.0885478040898087
aF-1.0133854377362004
aF0.12905745368072016
aF2.2412341523378005
aF0.79853976023128337
aF-0.36454727174209028
aF0.26818796881234852
aa(lp8
F0.71152561562596561
aF-2.0796529438834264
aF-2.1483487430249117
aF6.9937565247686324
aF-2.6932806018640432
aF0.87365643604153032
aF-0.27521716981639849
aF-0.69317796171974022
aF1.4829388330751954
aF0.15032611831751061
aa(lp9
F4.1780284175422464
aF2.2389437915055894
aF-1.2049778845768362
aF-1.9906524285431084
aF-1.0794143026656662
aF1.2503295226756015
aF1.5110426354962077
aF0.069183727022295249
aF-0.90369180831179174
aF1.330451160066807
aa(lp10
F3.4896494462464092
aF1.5779400249957982
aF-1.7037756856429545
aF-1.2937223763062589
aF-1.252897643668758
aF2.5579251719111249
aF0.11251895530354115
aF-0.32765919723019382
aF0.25796980227527688
aF0.28876999425564398
aa(lp11
F-2.9199889748352579
aF2.5079792259372873
aF-0.26869129501347927
aF2.3819348320256877
aF-0.40013837336281949
aF-0.70703289824333704
aF0.89807346463171278
aF0.027705834390431835
aF0.22709256938606712
aF0.58003619453441768
aa(lp12
F1.1465874075116682
aF0.64654144288197735
aF-7.2881039976971147
aF1.3534175359140115
aF2.1262562364094788
aF-0.44437780058028226
aF-0.20165527395488567
aF-0.83456349801503649
aF1.1154841409987732
aF0.43989371854035575
aa(lp13
F1.3097973132331286
aF-4.768206529313292
aF3.062775870805921
aF-0.66563295215705709
aF0.60433328604150061
aF0.57640550830499315
aF-1.2494624188777934
aF1.5666350406750118
aF-0.51828160968483428
aF-0.15870813328039851
aaa(lp14
(lp15
F-1.8148040628768556
aF3.0477993798325
aF6.1132907412960158
aF4.5249431887898472
aF-4.522955492342315
aF-0.64025454279338845
aF1.5016801306737726
aF5.273291455598911
aa(lp16
F4.9314978547685993
aF-2.4216573172085543
aF2.6588104417856382
aF1.7900029409253846
aF3.1690199036609479
aF-0.97904531474928502
aF-6.9362701771287565
aF1.9251270178442432
aa(lp17
F2.035433586005635
aF-3.3693418546010441
aF-1.3464811344773149
aF-1.8475276063996768
aF0.78085730654855656
aF-8.1717605643001079
aF5.0610237089455294
aF-2.2526682923595693
aa(lp18
F-2.90473062469531
aF9.0799456723632339
aF-4.2303297511805829
aF-2.1670750119753039
aF2.7790752961395833
aF2.4396121182564121
aF-2.1518815115786007
aF2.0596812942235658
aa(lp19
F-0.83434928940342989
aF-0.96281689670480042
aF-0.81262167750299819
aF-1.0684553940327006
aF-1.0796433613775889
aF-0.98797947576506118
aF-1.2764416059961632
aF2.8989346058128085
aaasS'moves'
p20
I118
sS'training'
p21
I01
sS'emptyMoves'
p22
I26
sb.