(imultiAgents
NeuralAgent
p1
(dp2
S'index'
p3
I0
sS'training'
p4
I01
sS'emptyMoves'
p5
I26
sS'iterations'
p6
I72695
sS'net'
p7
(lp8
(lp9
(lp10
F-1.3321806470095725
aF-0.76460038090814297
aF-0.16622412918864254
aF7.0196697829624526
aF-5.8179103530043088
aF0.069578365715016979
aF0.05086674519089468
aF1.2148810457841668
aF5.1163808746745092
aF0.37727775022174498
aa(lp11
F2.995289679405019
aF1.3000996807880443
aF-0.34776248772087837
aF-0.49911249503249072
aF1.7876419711592075
aF4.4961165058750296
aF0.31566710950913374
aF-1.8391505616615242
aF-1.868983582407046
aF3.5423162560696206
aa(lp12
F-6.5141023750982434
aF1.4515316661209097
aF1.5470451021816274
aF1.4087357041189941
aF6.0187360693867289
aF-7.1483476860214434
aF-0.84913702515139367
aF-1.1358129976590936
aF-0.95314247994111689
aF-0.51082491504068972
aa(lp13
F0.38201243919481864
aF-6.8173246539483756
aF1.5616218261617609
aF1.5866951065188268
aF7.1306239743064586
aF0.94343248771193644
aF-8.5181021075086285
aF0.31277610708220127
aF-0.115910480413376
aF1.2595720836891695
aa(lp14
F-1.1148471882570195
aF4.2775377216918233
aF-0.80725502437023666
aF0.52277021051348804
aF-0.42941990493516657
aF-0.24778025168039605
aF3.6434453551252775
aF-1.0520276603222631
aF-0.79114516412634373
aF2.9896234313598824
aa(lp15
F-2.9351155167578979
aF-2.7448880895372243
aF4.0765387727389495
aF-6.6243818155914989
aF-6.4571669046006521
aF0.3728638746986096
aF0.75555841911807231
aF3.1209519678640678
aF-5.325974086255858
aF-5.2661387307329637
aa(lp16
F1.3428362230102815
aF0.70905508881224932
aF5.2309560825164532
aF0.75897314748676903
aF-0.97764670589611857
aF0.5739961490084079
aF0.60932018170688418
aF3.6414512359918541
aF0.70769452902308905
aF5.1052339810272898
aaa(lp17
(lp18
F1.2602387197437788
aF11.441913228441235
aF-12.882192558444387
aF0.20476579531309619
aF-1.8838971359546428
aF-0.23648460472606334
aF1.3145311571208975
aF1.3571968861005079
aa(lp19
F1.1409201649786072
aF2.6594865133956622
aF-0.29203946525599056
aF-12.501024168452275
aF9.1085473833155426
aF-0.010062371534905704
aF2.4682061219145872
aF2.2432747439872771
aa(lp20
F-0.3443067208079939
aF-2.7876924269854615
aF0.54802968619201153
aF0.67572103313318665
aF-1.1315367831256702
aF7.5336074452797508
aF14.384992204527808
aF8.1801513188932287
aa(lp21
F13.788358445202562
aF0.40918212681773075
aF0.12371593524676613
aF-0.080922966377376088
aF0.0016752152050573356
aF-6.9427003138503114
aF0.20889087013239763
aF6.1535539633668339
aa(lp22
F-2.1876941891780914
aF-1.2948192423606628
aF-1.1211872324383354
aF-1.5769688541091236
aF-1.1863183291707933
aF-1.8929766111853634
aF-1.2207502132916561
aF4.1423057610999461
aaasS'moves'
p23
I87
sb.