(imultiAgents
NeuralAgent
p1
(dp2
S'index'
p3
I0
sS'net'
p4
(lp5
(lp6
(lp7
F-0.6064204832689758
aF-1.3226147408124469
aF-2.2235573635777759
aF8.4622036423024554
aF-2.1227362532325103
aF-0.19080741232052906
aF-0.54206093058960281
aF-1.2513712913537611
aF2.1833685965778864
aF0.16135253321408555
aa(lp8
F-0.54721305400392317
aF3.2724977404629447
aF0.81413713627401219
aF0.25544503051808909
aF-0.73830237112208774
aF-0.27998648269046855
aF0.99722634246184838
aF-0.48544944179086907
aF0.33461832407853059
aF1.1565700834798112
aa(lp9
F2.5165662342043
aF-2.9035351166010481
aF4.4925457992347875
aF-3.39460997244348
aF-0.70434655697770532
aF1.246254477420468
aF-0.63055770387371246
aF1.4590102369901239
aF-0.79366555648619119
aF-0.16208094192936412
aa(lp10
F1.8641674271040292
aF1.8587801537264792
aF-6.3021271821083031
aF0.13545840602960657
aF1.7858067012071313
aF0.19608493079024852
aF-0.11748251754784243
aF-1.0810810811876128
aF0.80326553333382211
aF0.2153988052344501
aa(lp11
F3.705982655894354
aF0.66637466129084522
aF-2.5616264400851843
aF-0.83797725950122082
aF-0.68577565789629391
aF1.4725737987295029
aF0.19659749869550519
aF-0.71879542471743019
aF-0.019428883183407627
aF0.91528705869029303
aa(lp12
F0.5209126749160875
aF6.3209102150483298
aF-0.84017012675477254
aF-1.6219084087611586
aF-2.0280704555980211
aF0.52349370910443915
aF2.4373636191968866
aF0.2177816171634526
aF-0.72980376743002318
aF0.65700409587474884
aa(lp13
F6.6417843815798951
aF-0.46117001855701062
aF-1.1050060689197172
aF-0.75501667303429998
aF-2.2561424183081917
aF2.3264374626157371
aF0.48722788796151728
aF-0.60109905771208372
aF0.060226315151164452
aF1.1774275683013204
aaa(lp14
(lp15
F-0.49282631253862036
aF-1.5989535694483099
aF1.9835990867962476
aF0.96555772208011725
aF4.5698443061870639
aF0.41122683893153772
aF8.8544316240932233
aF6.9304519026016056
aa(lp16
F-2.5756907466055354
aF3.4828021650085845
aF-3.262536058710523
aF1.3069988379516835
aF-0.089660849126968187
aF9.1914689245808265
aF-0.98820093597358083
aF3.9731974668484682
aa(lp17
F-4.4365297344747079
aF0.98371831234919382
aF5.2454955031055475
aF-8.7349405481324922
aF-3.216027866912432
aF-0.89312845016265785
aF-1.6885368647658114
aF-4.4705377226514766
aa(lp18
F10.461305267526162
aF0.12772212900563337
aF-4.7241970491914707
aF-1.117218959293133
aF-0.50755838271077625
aF-1.6320657949108925
aF0.32571680783733298
aF1.5662601580116349
aa(lp19
F-1.082067623742454
aF-0.87789110761904965
aF-1.5173851423730895
aF-1.0565113931433583
aF-0.85452488204481791
aF-1.0287387958162344
aF-0.76005739234041048
aF3.748151151966808
aaasS'moves'
p20
I91
sS'training'
p21
I01
sS'emptyMoves'
p22
I0
sb.